ARM GAS  /tmp/cc3tXaRV.s 			page 1


   1              		.cpu cortex-m0
   2              		.eabi_attribute 20, 1
   3              		.eabi_attribute 21, 1
   4              		.eabi_attribute 23, 3
   5              		.eabi_attribute 24, 1
   6              		.eabi_attribute 25, 1
   7              		.eabi_attribute 26, 1
   8              		.eabi_attribute 30, 1
   9              		.eabi_attribute 34, 0
  10              		.eabi_attribute 18, 4
  11              		.file	"stm32f0xx_hal_rtc_ex.c"
  12              		.text
  13              	.Ltext0:
  14              		.cfi_sections	.debug_frame
  15              		.section	.text.HAL_RTCEx_SetTimeStamp,"ax",%progbits
  16              		.align	1
  17              		.global	HAL_RTCEx_SetTimeStamp
  18              		.syntax unified
  19              		.code	16
  20              		.thumb_func
  21              		.fpu softvfp
  23              	HAL_RTCEx_SetTimeStamp:
  24              	.LFB35:
  25              		.file 1 "Drivers/STM32F0xx_HAL_Driver/Src/stm32f0xx_hal_rtc_ex.c"
   1:Drivers/STM32F0xx_HAL_Driver/Src/stm32f0xx_hal_rtc_ex.c **** /**
   2:Drivers/STM32F0xx_HAL_Driver/Src/stm32f0xx_hal_rtc_ex.c ****   ******************************************************************************
   3:Drivers/STM32F0xx_HAL_Driver/Src/stm32f0xx_hal_rtc_ex.c ****   * @file    stm32f0xx_hal_rtc_ex.c
   4:Drivers/STM32F0xx_HAL_Driver/Src/stm32f0xx_hal_rtc_ex.c ****   * @author  MCD Application Team
   5:Drivers/STM32F0xx_HAL_Driver/Src/stm32f0xx_hal_rtc_ex.c ****   * @brief   Extended RTC HAL module driver.
   6:Drivers/STM32F0xx_HAL_Driver/Src/stm32f0xx_hal_rtc_ex.c ****   *          This file provides firmware functions to manage the following 
   7:Drivers/STM32F0xx_HAL_Driver/Src/stm32f0xx_hal_rtc_ex.c ****   *          functionalities of the Real Time Clock (RTC) Extended peripheral:
   8:Drivers/STM32F0xx_HAL_Driver/Src/stm32f0xx_hal_rtc_ex.c ****   *           + RTC Time Stamp functions
   9:Drivers/STM32F0xx_HAL_Driver/Src/stm32f0xx_hal_rtc_ex.c ****   *           + RTC Tamper functions 
  10:Drivers/STM32F0xx_HAL_Driver/Src/stm32f0xx_hal_rtc_ex.c ****   *           + RTC Wake-up functions
  11:Drivers/STM32F0xx_HAL_Driver/Src/stm32f0xx_hal_rtc_ex.c ****   *           + Extended Control functions
  12:Drivers/STM32F0xx_HAL_Driver/Src/stm32f0xx_hal_rtc_ex.c ****   *           + Extended RTC features functions    
  13:Drivers/STM32F0xx_HAL_Driver/Src/stm32f0xx_hal_rtc_ex.c ****   *
  14:Drivers/STM32F0xx_HAL_Driver/Src/stm32f0xx_hal_rtc_ex.c ****   @verbatim
  15:Drivers/STM32F0xx_HAL_Driver/Src/stm32f0xx_hal_rtc_ex.c ****   ==============================================================================
  16:Drivers/STM32F0xx_HAL_Driver/Src/stm32f0xx_hal_rtc_ex.c ****                   ##### How to use this driver #####
  17:Drivers/STM32F0xx_HAL_Driver/Src/stm32f0xx_hal_rtc_ex.c ****   ==============================================================================
  18:Drivers/STM32F0xx_HAL_Driver/Src/stm32f0xx_hal_rtc_ex.c ****   [..] 
  19:Drivers/STM32F0xx_HAL_Driver/Src/stm32f0xx_hal_rtc_ex.c ****     (+) Enable the RTC domain access.
  20:Drivers/STM32F0xx_HAL_Driver/Src/stm32f0xx_hal_rtc_ex.c ****         (+) Configure the RTC Prescaler (Asynchronous and Synchronous) and RTC hour 
  21:Drivers/STM32F0xx_HAL_Driver/Src/stm32f0xx_hal_rtc_ex.c ****             format using the HAL_RTC_Init() function.
  22:Drivers/STM32F0xx_HAL_Driver/Src/stm32f0xx_hal_rtc_ex.c **** 
  23:Drivers/STM32F0xx_HAL_Driver/Src/stm32f0xx_hal_rtc_ex.c ****     *** RTC Wake-up configuration ***
  24:Drivers/STM32F0xx_HAL_Driver/Src/stm32f0xx_hal_rtc_ex.c ****     ================================
  25:Drivers/STM32F0xx_HAL_Driver/Src/stm32f0xx_hal_rtc_ex.c ****     [..] 
  26:Drivers/STM32F0xx_HAL_Driver/Src/stm32f0xx_hal_rtc_ex.c ****     (+) To configure the RTC Wakeup Clock source and Counter use the HAL_RTCEx_SetWakeUpTimer()
  27:Drivers/STM32F0xx_HAL_Driver/Src/stm32f0xx_hal_rtc_ex.c ****         function. You can also configure the RTC Wakeup timer with interrupt mode 
  28:Drivers/STM32F0xx_HAL_Driver/Src/stm32f0xx_hal_rtc_ex.c ****             using the HAL_RTCEx_SetWakeUpTimer_IT() function.
  29:Drivers/STM32F0xx_HAL_Driver/Src/stm32f0xx_hal_rtc_ex.c ****     (+) To read the RTC WakeUp Counter register, use the HAL_RTCEx_GetWakeUpTimer()
  30:Drivers/STM32F0xx_HAL_Driver/Src/stm32f0xx_hal_rtc_ex.c ****             function.
  31:Drivers/STM32F0xx_HAL_Driver/Src/stm32f0xx_hal_rtc_ex.c ****         (@) Not available on F030x4/x6/x8 and F070x6            
  32:Drivers/STM32F0xx_HAL_Driver/Src/stm32f0xx_hal_rtc_ex.c ****   
  33:Drivers/STM32F0xx_HAL_Driver/Src/stm32f0xx_hal_rtc_ex.c ****     *** TimeStamp configuration ***
ARM GAS  /tmp/cc3tXaRV.s 			page 2


  34:Drivers/STM32F0xx_HAL_Driver/Src/stm32f0xx_hal_rtc_ex.c ****     ===============================
  35:Drivers/STM32F0xx_HAL_Driver/Src/stm32f0xx_hal_rtc_ex.c ****     [..]
  36:Drivers/STM32F0xx_HAL_Driver/Src/stm32f0xx_hal_rtc_ex.c ****         (+) Configure the RTC_AF trigger and enable the RTC TimeStamp using the 
  37:Drivers/STM32F0xx_HAL_Driver/Src/stm32f0xx_hal_rtc_ex.c ****             HAL_RTCEx_SetTimeStamp() function. You can also configure the RTC TimeStamp with 
  38:Drivers/STM32F0xx_HAL_Driver/Src/stm32f0xx_hal_rtc_ex.c ****             interrupt mode using the HAL_RTCEx_SetTimeStamp_IT() function.
  39:Drivers/STM32F0xx_HAL_Driver/Src/stm32f0xx_hal_rtc_ex.c ****         (+) To read the RTC TimeStamp Time and Date register, use the HAL_RTCEx_GetTimeStamp()
  40:Drivers/STM32F0xx_HAL_Driver/Src/stm32f0xx_hal_rtc_ex.c ****             function.
  41:Drivers/STM32F0xx_HAL_Driver/Src/stm32f0xx_hal_rtc_ex.c ****   
  42:Drivers/STM32F0xx_HAL_Driver/Src/stm32f0xx_hal_rtc_ex.c ****     *** Tamper configuration ***
  43:Drivers/STM32F0xx_HAL_Driver/Src/stm32f0xx_hal_rtc_ex.c ****     ============================
  44:Drivers/STM32F0xx_HAL_Driver/Src/stm32f0xx_hal_rtc_ex.c ****     [..]
  45:Drivers/STM32F0xx_HAL_Driver/Src/stm32f0xx_hal_rtc_ex.c ****         (+) Enable the RTC Tamper and configure the Tamper filter count, trigger Edge 
  46:Drivers/STM32F0xx_HAL_Driver/Src/stm32f0xx_hal_rtc_ex.c ****             or Level according to the Tamper filter (if equal to 0 Edge else Level) 
  47:Drivers/STM32F0xx_HAL_Driver/Src/stm32f0xx_hal_rtc_ex.c ****             value, sampling frequency, precharge or discharge and Pull-UP using the 
  48:Drivers/STM32F0xx_HAL_Driver/Src/stm32f0xx_hal_rtc_ex.c ****             HAL_RTCEx_SetTamper() function. You can configure RTC Tamper in interrupt 
  49:Drivers/STM32F0xx_HAL_Driver/Src/stm32f0xx_hal_rtc_ex.c ****             mode using HAL_RTCEx_SetTamper_IT() function.
  50:Drivers/STM32F0xx_HAL_Driver/Src/stm32f0xx_hal_rtc_ex.c ****   
  51:Drivers/STM32F0xx_HAL_Driver/Src/stm32f0xx_hal_rtc_ex.c ****     *** Backup Data Registers configuration ***
  52:Drivers/STM32F0xx_HAL_Driver/Src/stm32f0xx_hal_rtc_ex.c ****     ===========================================
  53:Drivers/STM32F0xx_HAL_Driver/Src/stm32f0xx_hal_rtc_ex.c ****     [..]
  54:Drivers/STM32F0xx_HAL_Driver/Src/stm32f0xx_hal_rtc_ex.c ****         (+) To write to the RTC Backup Data registers, use the HAL_RTCEx_BKUPWrite()
  55:Drivers/STM32F0xx_HAL_Driver/Src/stm32f0xx_hal_rtc_ex.c ****             function.  
  56:Drivers/STM32F0xx_HAL_Driver/Src/stm32f0xx_hal_rtc_ex.c ****         (+) To read the RTC Backup Data registers, use the HAL_RTCEx_BKUPRead()
  57:Drivers/STM32F0xx_HAL_Driver/Src/stm32f0xx_hal_rtc_ex.c ****             function.
  58:Drivers/STM32F0xx_HAL_Driver/Src/stm32f0xx_hal_rtc_ex.c ****         (@) Not available on F030x6/x8/xC and F070x6/xB (F0xx Value Line devices)
  59:Drivers/STM32F0xx_HAL_Driver/Src/stm32f0xx_hal_rtc_ex.c ****    
  60:Drivers/STM32F0xx_HAL_Driver/Src/stm32f0xx_hal_rtc_ex.c ****      
  61:Drivers/STM32F0xx_HAL_Driver/Src/stm32f0xx_hal_rtc_ex.c ****    @endverbatim
  62:Drivers/STM32F0xx_HAL_Driver/Src/stm32f0xx_hal_rtc_ex.c ****   ******************************************************************************
  63:Drivers/STM32F0xx_HAL_Driver/Src/stm32f0xx_hal_rtc_ex.c ****   * @attention
  64:Drivers/STM32F0xx_HAL_Driver/Src/stm32f0xx_hal_rtc_ex.c ****   *
  65:Drivers/STM32F0xx_HAL_Driver/Src/stm32f0xx_hal_rtc_ex.c ****   * <h2><center>&copy; COPYRIGHT(c) 2016 STMicroelectronics</center></h2>
  66:Drivers/STM32F0xx_HAL_Driver/Src/stm32f0xx_hal_rtc_ex.c ****   *
  67:Drivers/STM32F0xx_HAL_Driver/Src/stm32f0xx_hal_rtc_ex.c ****   * Redistribution and use in source and binary forms, with or without modification,
  68:Drivers/STM32F0xx_HAL_Driver/Src/stm32f0xx_hal_rtc_ex.c ****   * are permitted provided that the following conditions are met:
  69:Drivers/STM32F0xx_HAL_Driver/Src/stm32f0xx_hal_rtc_ex.c ****   *   1. Redistributions of source code must retain the above copyright notice,
  70:Drivers/STM32F0xx_HAL_Driver/Src/stm32f0xx_hal_rtc_ex.c ****   *      this list of conditions and the following disclaimer.
  71:Drivers/STM32F0xx_HAL_Driver/Src/stm32f0xx_hal_rtc_ex.c ****   *   2. Redistributions in binary form must reproduce the above copyright notice,
  72:Drivers/STM32F0xx_HAL_Driver/Src/stm32f0xx_hal_rtc_ex.c ****   *      this list of conditions and the following disclaimer in the documentation
  73:Drivers/STM32F0xx_HAL_Driver/Src/stm32f0xx_hal_rtc_ex.c ****   *      and/or other materials provided with the distribution.
  74:Drivers/STM32F0xx_HAL_Driver/Src/stm32f0xx_hal_rtc_ex.c ****   *   3. Neither the name of STMicroelectronics nor the names of its contributors
  75:Drivers/STM32F0xx_HAL_Driver/Src/stm32f0xx_hal_rtc_ex.c ****   *      may be used to endorse or promote products derived from this software
  76:Drivers/STM32F0xx_HAL_Driver/Src/stm32f0xx_hal_rtc_ex.c ****   *      without specific prior written permission.
  77:Drivers/STM32F0xx_HAL_Driver/Src/stm32f0xx_hal_rtc_ex.c ****   *
  78:Drivers/STM32F0xx_HAL_Driver/Src/stm32f0xx_hal_rtc_ex.c ****   * THIS SOFTWARE IS PROVIDED BY THE COPYRIGHT HOLDERS AND CONTRIBUTORS "AS IS"
  79:Drivers/STM32F0xx_HAL_Driver/Src/stm32f0xx_hal_rtc_ex.c ****   * AND ANY EXPRESS OR IMPLIED WARRANTIES, INCLUDING, BUT NOT LIMITED TO, THE
  80:Drivers/STM32F0xx_HAL_Driver/Src/stm32f0xx_hal_rtc_ex.c ****   * IMPLIED WARRANTIES OF MERCHANTABILITY AND FITNESS FOR A PARTICULAR PURPOSE ARE
  81:Drivers/STM32F0xx_HAL_Driver/Src/stm32f0xx_hal_rtc_ex.c ****   * DISCLAIMED. IN NO EVENT SHALL THE COPYRIGHT HOLDER OR CONTRIBUTORS BE LIABLE
  82:Drivers/STM32F0xx_HAL_Driver/Src/stm32f0xx_hal_rtc_ex.c ****   * FOR ANY DIRECT, INDIRECT, INCIDENTAL, SPECIAL, EXEMPLARY, OR CONSEQUENTIAL
  83:Drivers/STM32F0xx_HAL_Driver/Src/stm32f0xx_hal_rtc_ex.c ****   * DAMAGES (INCLUDING, BUT NOT LIMITED TO, PROCUREMENT OF SUBSTITUTE GOODS OR
  84:Drivers/STM32F0xx_HAL_Driver/Src/stm32f0xx_hal_rtc_ex.c ****   * SERVICES; LOSS OF USE, DATA, OR PROFITS; OR BUSINESS INTERRUPTION) HOWEVER
  85:Drivers/STM32F0xx_HAL_Driver/Src/stm32f0xx_hal_rtc_ex.c ****   * CAUSED AND ON ANY THEORY OF LIABILITY, WHETHER IN CONTRACT, STRICT LIABILITY,
  86:Drivers/STM32F0xx_HAL_Driver/Src/stm32f0xx_hal_rtc_ex.c ****   * OR TORT (INCLUDING NEGLIGENCE OR OTHERWISE) ARISING IN ANY WAY OUT OF THE USE
  87:Drivers/STM32F0xx_HAL_Driver/Src/stm32f0xx_hal_rtc_ex.c ****   * OF THIS SOFTWARE, EVEN IF ADVISED OF THE POSSIBILITY OF SUCH DAMAGE.
  88:Drivers/STM32F0xx_HAL_Driver/Src/stm32f0xx_hal_rtc_ex.c ****   *
  89:Drivers/STM32F0xx_HAL_Driver/Src/stm32f0xx_hal_rtc_ex.c ****   ******************************************************************************  
  90:Drivers/STM32F0xx_HAL_Driver/Src/stm32f0xx_hal_rtc_ex.c ****   */ 
ARM GAS  /tmp/cc3tXaRV.s 			page 3


  91:Drivers/STM32F0xx_HAL_Driver/Src/stm32f0xx_hal_rtc_ex.c **** 
  92:Drivers/STM32F0xx_HAL_Driver/Src/stm32f0xx_hal_rtc_ex.c **** /* Includes ------------------------------------------------------------------*/
  93:Drivers/STM32F0xx_HAL_Driver/Src/stm32f0xx_hal_rtc_ex.c **** #include "stm32f0xx_hal.h"
  94:Drivers/STM32F0xx_HAL_Driver/Src/stm32f0xx_hal_rtc_ex.c **** 
  95:Drivers/STM32F0xx_HAL_Driver/Src/stm32f0xx_hal_rtc_ex.c **** /** @addtogroup STM32F0xx_HAL_Driver
  96:Drivers/STM32F0xx_HAL_Driver/Src/stm32f0xx_hal_rtc_ex.c ****   * @{
  97:Drivers/STM32F0xx_HAL_Driver/Src/stm32f0xx_hal_rtc_ex.c ****   */
  98:Drivers/STM32F0xx_HAL_Driver/Src/stm32f0xx_hal_rtc_ex.c **** 
  99:Drivers/STM32F0xx_HAL_Driver/Src/stm32f0xx_hal_rtc_ex.c **** 
 100:Drivers/STM32F0xx_HAL_Driver/Src/stm32f0xx_hal_rtc_ex.c **** 
 101:Drivers/STM32F0xx_HAL_Driver/Src/stm32f0xx_hal_rtc_ex.c **** /** @addtogroup RTCEx
 102:Drivers/STM32F0xx_HAL_Driver/Src/stm32f0xx_hal_rtc_ex.c ****   * @brief RTC Extended HAL module driver
 103:Drivers/STM32F0xx_HAL_Driver/Src/stm32f0xx_hal_rtc_ex.c ****   * @{
 104:Drivers/STM32F0xx_HAL_Driver/Src/stm32f0xx_hal_rtc_ex.c ****   */
 105:Drivers/STM32F0xx_HAL_Driver/Src/stm32f0xx_hal_rtc_ex.c **** 
 106:Drivers/STM32F0xx_HAL_Driver/Src/stm32f0xx_hal_rtc_ex.c **** #ifdef HAL_RTC_MODULE_ENABLED
 107:Drivers/STM32F0xx_HAL_Driver/Src/stm32f0xx_hal_rtc_ex.c **** 
 108:Drivers/STM32F0xx_HAL_Driver/Src/stm32f0xx_hal_rtc_ex.c **** /* Private typedef -----------------------------------------------------------*/
 109:Drivers/STM32F0xx_HAL_Driver/Src/stm32f0xx_hal_rtc_ex.c **** /* Private define ------------------------------------------------------------*/
 110:Drivers/STM32F0xx_HAL_Driver/Src/stm32f0xx_hal_rtc_ex.c **** /* Private macro -------------------------------------------------------------*/
 111:Drivers/STM32F0xx_HAL_Driver/Src/stm32f0xx_hal_rtc_ex.c **** /* Private variables ---------------------------------------------------------*/
 112:Drivers/STM32F0xx_HAL_Driver/Src/stm32f0xx_hal_rtc_ex.c **** /* Private function prototypes -----------------------------------------------*/
 113:Drivers/STM32F0xx_HAL_Driver/Src/stm32f0xx_hal_rtc_ex.c **** /* Exported functions ---------------------------------------------------------*/
 114:Drivers/STM32F0xx_HAL_Driver/Src/stm32f0xx_hal_rtc_ex.c **** 
 115:Drivers/STM32F0xx_HAL_Driver/Src/stm32f0xx_hal_rtc_ex.c **** /** @addtogroup RTCEx_Exported_Functions
 116:Drivers/STM32F0xx_HAL_Driver/Src/stm32f0xx_hal_rtc_ex.c ****   * @{
 117:Drivers/STM32F0xx_HAL_Driver/Src/stm32f0xx_hal_rtc_ex.c ****   */
 118:Drivers/STM32F0xx_HAL_Driver/Src/stm32f0xx_hal_rtc_ex.c **** 
 119:Drivers/STM32F0xx_HAL_Driver/Src/stm32f0xx_hal_rtc_ex.c **** 
 120:Drivers/STM32F0xx_HAL_Driver/Src/stm32f0xx_hal_rtc_ex.c **** /** @addtogroup RTCEx_Exported_Functions_Group1
 121:Drivers/STM32F0xx_HAL_Driver/Src/stm32f0xx_hal_rtc_ex.c ****  *  @brief   RTC TimeStamp and Tamper functions
 122:Drivers/STM32F0xx_HAL_Driver/Src/stm32f0xx_hal_rtc_ex.c ****  *
 123:Drivers/STM32F0xx_HAL_Driver/Src/stm32f0xx_hal_rtc_ex.c **** @verbatim   
 124:Drivers/STM32F0xx_HAL_Driver/Src/stm32f0xx_hal_rtc_ex.c ****  ===============================================================================
 125:Drivers/STM32F0xx_HAL_Driver/Src/stm32f0xx_hal_rtc_ex.c ****                  ##### RTC TimeStamp and Tamper functions #####
 126:Drivers/STM32F0xx_HAL_Driver/Src/stm32f0xx_hal_rtc_ex.c ****  ===============================================================================  
 127:Drivers/STM32F0xx_HAL_Driver/Src/stm32f0xx_hal_rtc_ex.c ****  
 128:Drivers/STM32F0xx_HAL_Driver/Src/stm32f0xx_hal_rtc_ex.c ****  [..] This section provides functions allowing to configure TimeStamp feature
 129:Drivers/STM32F0xx_HAL_Driver/Src/stm32f0xx_hal_rtc_ex.c **** 
 130:Drivers/STM32F0xx_HAL_Driver/Src/stm32f0xx_hal_rtc_ex.c **** @endverbatim
 131:Drivers/STM32F0xx_HAL_Driver/Src/stm32f0xx_hal_rtc_ex.c ****   * @{
 132:Drivers/STM32F0xx_HAL_Driver/Src/stm32f0xx_hal_rtc_ex.c ****   */
 133:Drivers/STM32F0xx_HAL_Driver/Src/stm32f0xx_hal_rtc_ex.c **** 
 134:Drivers/STM32F0xx_HAL_Driver/Src/stm32f0xx_hal_rtc_ex.c **** /**
 135:Drivers/STM32F0xx_HAL_Driver/Src/stm32f0xx_hal_rtc_ex.c ****   * @brief  Set TimeStamp.
 136:Drivers/STM32F0xx_HAL_Driver/Src/stm32f0xx_hal_rtc_ex.c ****   * @note   This API must be called before enabling the TimeStamp feature.
 137:Drivers/STM32F0xx_HAL_Driver/Src/stm32f0xx_hal_rtc_ex.c ****   * @param  hrtc RTC handle
 138:Drivers/STM32F0xx_HAL_Driver/Src/stm32f0xx_hal_rtc_ex.c ****   * @param  TimeStampEdge Specifies the pin edge on which the TimeStamp is
 139:Drivers/STM32F0xx_HAL_Driver/Src/stm32f0xx_hal_rtc_ex.c ****   *         activated.
 140:Drivers/STM32F0xx_HAL_Driver/Src/stm32f0xx_hal_rtc_ex.c ****   *          This parameter can be one of the following values:
 141:Drivers/STM32F0xx_HAL_Driver/Src/stm32f0xx_hal_rtc_ex.c ****   *             @arg RTC_TIMESTAMPEDGE_RISING: the Time stamp event occurs on the  
 142:Drivers/STM32F0xx_HAL_Driver/Src/stm32f0xx_hal_rtc_ex.c ****   *                                        rising edge of the related pin.
 143:Drivers/STM32F0xx_HAL_Driver/Src/stm32f0xx_hal_rtc_ex.c ****   *             @arg RTC_TIMESTAMPEDGE_FALLING: the Time stamp event occurs on the 
 144:Drivers/STM32F0xx_HAL_Driver/Src/stm32f0xx_hal_rtc_ex.c ****   *                                         falling edge of the related pin.
 145:Drivers/STM32F0xx_HAL_Driver/Src/stm32f0xx_hal_rtc_ex.c ****   * @param  RTC_TimeStampPin specifies the RTC TimeStamp Pin.
 146:Drivers/STM32F0xx_HAL_Driver/Src/stm32f0xx_hal_rtc_ex.c ****   *          This parameter can be one of the following values:
 147:Drivers/STM32F0xx_HAL_Driver/Src/stm32f0xx_hal_rtc_ex.c ****   *             @arg RTC_TIMESTAMPPIN_DEFAULT: PC13 is selected as RTC TimeStamp Pin.
ARM GAS  /tmp/cc3tXaRV.s 			page 4


 148:Drivers/STM32F0xx_HAL_Driver/Src/stm32f0xx_hal_rtc_ex.c ****   * @retval HAL status
 149:Drivers/STM32F0xx_HAL_Driver/Src/stm32f0xx_hal_rtc_ex.c ****   */
 150:Drivers/STM32F0xx_HAL_Driver/Src/stm32f0xx_hal_rtc_ex.c **** HAL_StatusTypeDef HAL_RTCEx_SetTimeStamp(RTC_HandleTypeDef *hrtc, uint32_t TimeStampEdge, uint32_t 
 151:Drivers/STM32F0xx_HAL_Driver/Src/stm32f0xx_hal_rtc_ex.c **** {
  26              		.loc 1 151 0
  27              		.cfi_startproc
  28              		@ args = 0, pretend = 0, frame = 0
  29              		@ frame_needed = 0, uses_anonymous_args = 0
  30              	.LVL0:
  31 0000 30B5     		push	{r4, r5, lr}
  32              	.LCFI0:
  33              		.cfi_def_cfa_offset 12
  34              		.cfi_offset 4, -12
  35              		.cfi_offset 5, -8
  36              		.cfi_offset 14, -4
  37              	.LVL1:
 152:Drivers/STM32F0xx_HAL_Driver/Src/stm32f0xx_hal_rtc_ex.c ****   uint32_t tmpreg = 0U;
 153:Drivers/STM32F0xx_HAL_Driver/Src/stm32f0xx_hal_rtc_ex.c **** 
 154:Drivers/STM32F0xx_HAL_Driver/Src/stm32f0xx_hal_rtc_ex.c ****   /* Check the parameters */
 155:Drivers/STM32F0xx_HAL_Driver/Src/stm32f0xx_hal_rtc_ex.c ****   assert_param(IS_TIMESTAMP_EDGE(TimeStampEdge));
 156:Drivers/STM32F0xx_HAL_Driver/Src/stm32f0xx_hal_rtc_ex.c ****   assert_param(IS_RTC_TIMESTAMP_PIN(RTC_TimeStampPin));
 157:Drivers/STM32F0xx_HAL_Driver/Src/stm32f0xx_hal_rtc_ex.c **** 
 158:Drivers/STM32F0xx_HAL_Driver/Src/stm32f0xx_hal_rtc_ex.c ****   /* Process Locked */
 159:Drivers/STM32F0xx_HAL_Driver/Src/stm32f0xx_hal_rtc_ex.c ****   __HAL_LOCK(hrtc);
  38              		.loc 1 159 0
  39 0002 037F     		ldrb	r3, [r0, #28]
  40 0004 012B     		cmp	r3, #1
  41 0006 1DD0     		beq	.L3
  42              		.loc 1 159 0 is_stmt 0 discriminator 2
  43 0008 0122     		movs	r2, #1
  44              	.LVL2:
  45 000a 0277     		strb	r2, [r0, #28]
 160:Drivers/STM32F0xx_HAL_Driver/Src/stm32f0xx_hal_rtc_ex.c **** 
 161:Drivers/STM32F0xx_HAL_Driver/Src/stm32f0xx_hal_rtc_ex.c ****   hrtc->State = HAL_RTC_STATE_BUSY;
  46              		.loc 1 161 0 is_stmt 1 discriminator 2
  47 000c 0223     		movs	r3, #2
  48 000e 4377     		strb	r3, [r0, #29]
 162:Drivers/STM32F0xx_HAL_Driver/Src/stm32f0xx_hal_rtc_ex.c **** 
 163:Drivers/STM32F0xx_HAL_Driver/Src/stm32f0xx_hal_rtc_ex.c ****   /* Get the RTC_CR register and clear the bits to be configured */
 164:Drivers/STM32F0xx_HAL_Driver/Src/stm32f0xx_hal_rtc_ex.c ****   tmpreg = (uint32_t)(hrtc->Instance->CR & (uint32_t)~(RTC_CR_TSEDGE | RTC_CR_TSE));
  49              		.loc 1 164 0 discriminator 2
  50 0010 0468     		ldr	r4, [r0]
  51 0012 A368     		ldr	r3, [r4, #8]
  52 0014 0C4D     		ldr	r5, .L4
  53 0016 2B40     		ands	r3, r5
  54              	.LVL3:
 165:Drivers/STM32F0xx_HAL_Driver/Src/stm32f0xx_hal_rtc_ex.c **** 
 166:Drivers/STM32F0xx_HAL_Driver/Src/stm32f0xx_hal_rtc_ex.c ****   tmpreg|= TimeStampEdge;
  55              		.loc 1 166 0 discriminator 2
  56 0018 1943     		orrs	r1, r3
  57              	.LVL4:
 167:Drivers/STM32F0xx_HAL_Driver/Src/stm32f0xx_hal_rtc_ex.c **** 
 168:Drivers/STM32F0xx_HAL_Driver/Src/stm32f0xx_hal_rtc_ex.c ****   /* Disable the write protection for RTC registers */
 169:Drivers/STM32F0xx_HAL_Driver/Src/stm32f0xx_hal_rtc_ex.c ****   __HAL_RTC_WRITEPROTECTION_DISABLE(hrtc);
  58              		.loc 1 169 0 discriminator 2
  59 001a CA23     		movs	r3, #202
  60 001c 6362     		str	r3, [r4, #36]
ARM GAS  /tmp/cc3tXaRV.s 			page 5


  61 001e 0368     		ldr	r3, [r0]
  62 0020 5324     		movs	r4, #83
  63 0022 5C62     		str	r4, [r3, #36]
 170:Drivers/STM32F0xx_HAL_Driver/Src/stm32f0xx_hal_rtc_ex.c **** 
 171:Drivers/STM32F0xx_HAL_Driver/Src/stm32f0xx_hal_rtc_ex.c ****   /* Configure the Time Stamp TSEDGE and Enable bits */
 172:Drivers/STM32F0xx_HAL_Driver/Src/stm32f0xx_hal_rtc_ex.c ****   hrtc->Instance->CR = (uint32_t)tmpreg;
  64              		.loc 1 172 0 discriminator 2
  65 0024 0368     		ldr	r3, [r0]
  66 0026 9960     		str	r1, [r3, #8]
 173:Drivers/STM32F0xx_HAL_Driver/Src/stm32f0xx_hal_rtc_ex.c **** 
 174:Drivers/STM32F0xx_HAL_Driver/Src/stm32f0xx_hal_rtc_ex.c ****   __HAL_RTC_TIMESTAMP_ENABLE(hrtc);
  67              		.loc 1 174 0 discriminator 2
  68 0028 0168     		ldr	r1, [r0]
  69              	.LVL5:
  70 002a 8C68     		ldr	r4, [r1, #8]
  71 002c 8023     		movs	r3, #128
  72              	.LVL6:
  73 002e 1B01     		lsls	r3, r3, #4
  74 0030 2343     		orrs	r3, r4
  75 0032 8B60     		str	r3, [r1, #8]
 175:Drivers/STM32F0xx_HAL_Driver/Src/stm32f0xx_hal_rtc_ex.c **** 
 176:Drivers/STM32F0xx_HAL_Driver/Src/stm32f0xx_hal_rtc_ex.c ****   /* Enable the write protection for RTC registers */
 177:Drivers/STM32F0xx_HAL_Driver/Src/stm32f0xx_hal_rtc_ex.c ****   __HAL_RTC_WRITEPROTECTION_ENABLE(hrtc);
  76              		.loc 1 177 0 discriminator 2
  77 0034 0368     		ldr	r3, [r0]
  78 0036 FF21     		movs	r1, #255
  79 0038 5962     		str	r1, [r3, #36]
 178:Drivers/STM32F0xx_HAL_Driver/Src/stm32f0xx_hal_rtc_ex.c **** 
 179:Drivers/STM32F0xx_HAL_Driver/Src/stm32f0xx_hal_rtc_ex.c ****   /* Change RTC state */
 180:Drivers/STM32F0xx_HAL_Driver/Src/stm32f0xx_hal_rtc_ex.c ****   hrtc->State = HAL_RTC_STATE_READY;
  80              		.loc 1 180 0 discriminator 2
  81 003a 4277     		strb	r2, [r0, #29]
 181:Drivers/STM32F0xx_HAL_Driver/Src/stm32f0xx_hal_rtc_ex.c **** 
 182:Drivers/STM32F0xx_HAL_Driver/Src/stm32f0xx_hal_rtc_ex.c ****   /* Process Unlocked */
 183:Drivers/STM32F0xx_HAL_Driver/Src/stm32f0xx_hal_rtc_ex.c ****   __HAL_UNLOCK(hrtc);
  82              		.loc 1 183 0 discriminator 2
  83 003c 0023     		movs	r3, #0
  84 003e 0377     		strb	r3, [r0, #28]
 184:Drivers/STM32F0xx_HAL_Driver/Src/stm32f0xx_hal_rtc_ex.c **** 
 185:Drivers/STM32F0xx_HAL_Driver/Src/stm32f0xx_hal_rtc_ex.c ****   return HAL_OK;
  85              		.loc 1 185 0 discriminator 2
  86 0040 0020     		movs	r0, #0
  87              	.LVL7:
  88              	.L2:
 186:Drivers/STM32F0xx_HAL_Driver/Src/stm32f0xx_hal_rtc_ex.c **** }
  89              		.loc 1 186 0
  90              		@ sp needed
  91 0042 30BD     		pop	{r4, r5, pc}
  92              	.LVL8:
  93              	.L3:
 159:Drivers/STM32F0xx_HAL_Driver/Src/stm32f0xx_hal_rtc_ex.c **** 
  94              		.loc 1 159 0
  95 0044 0220     		movs	r0, #2
  96              	.LVL9:
  97 0046 FCE7     		b	.L2
  98              	.L5:
  99              		.align	2
ARM GAS  /tmp/cc3tXaRV.s 			page 6


 100              	.L4:
 101 0048 F7F7FFFF 		.word	-2057
 102              		.cfi_endproc
 103              	.LFE35:
 105              		.section	.text.HAL_RTCEx_SetTimeStamp_IT,"ax",%progbits
 106              		.align	1
 107              		.global	HAL_RTCEx_SetTimeStamp_IT
 108              		.syntax unified
 109              		.code	16
 110              		.thumb_func
 111              		.fpu softvfp
 113              	HAL_RTCEx_SetTimeStamp_IT:
 114              	.LFB36:
 187:Drivers/STM32F0xx_HAL_Driver/Src/stm32f0xx_hal_rtc_ex.c **** 
 188:Drivers/STM32F0xx_HAL_Driver/Src/stm32f0xx_hal_rtc_ex.c **** /**
 189:Drivers/STM32F0xx_HAL_Driver/Src/stm32f0xx_hal_rtc_ex.c ****   * @brief  Set TimeStamp with Interrupt.
 190:Drivers/STM32F0xx_HAL_Driver/Src/stm32f0xx_hal_rtc_ex.c ****   * @param  hrtc RTC handle
 191:Drivers/STM32F0xx_HAL_Driver/Src/stm32f0xx_hal_rtc_ex.c ****   * @note   This API must be called before enabling the TimeStamp feature.
 192:Drivers/STM32F0xx_HAL_Driver/Src/stm32f0xx_hal_rtc_ex.c ****   * @param  TimeStampEdge Specifies the pin edge on which the TimeStamp is 
 193:Drivers/STM32F0xx_HAL_Driver/Src/stm32f0xx_hal_rtc_ex.c ****   *         activated.
 194:Drivers/STM32F0xx_HAL_Driver/Src/stm32f0xx_hal_rtc_ex.c ****   *          This parameter can be one of the following values:
 195:Drivers/STM32F0xx_HAL_Driver/Src/stm32f0xx_hal_rtc_ex.c ****   *             @arg RTC_TIMESTAMPEDGE_RISING: the Time stamp event occurs on the  
 196:Drivers/STM32F0xx_HAL_Driver/Src/stm32f0xx_hal_rtc_ex.c ****   *                                        rising edge of the related pin.
 197:Drivers/STM32F0xx_HAL_Driver/Src/stm32f0xx_hal_rtc_ex.c ****   *             @arg RTC_TIMESTAMPEDGE_FALLING: the Time stamp event occurs on the 
 198:Drivers/STM32F0xx_HAL_Driver/Src/stm32f0xx_hal_rtc_ex.c ****   *                                         falling edge of the related pin.
 199:Drivers/STM32F0xx_HAL_Driver/Src/stm32f0xx_hal_rtc_ex.c ****   * @param  RTC_TimeStampPin Specifies the RTC TimeStamp Pin.
 200:Drivers/STM32F0xx_HAL_Driver/Src/stm32f0xx_hal_rtc_ex.c ****   *          This parameter can be one of the following values:
 201:Drivers/STM32F0xx_HAL_Driver/Src/stm32f0xx_hal_rtc_ex.c ****   *             @arg RTC_TIMESTAMPPIN_DEFAULT: PC13 is selected as RTC TimeStamp Pin.
 202:Drivers/STM32F0xx_HAL_Driver/Src/stm32f0xx_hal_rtc_ex.c ****   * @retval HAL status
 203:Drivers/STM32F0xx_HAL_Driver/Src/stm32f0xx_hal_rtc_ex.c ****   */
 204:Drivers/STM32F0xx_HAL_Driver/Src/stm32f0xx_hal_rtc_ex.c **** HAL_StatusTypeDef HAL_RTCEx_SetTimeStamp_IT(RTC_HandleTypeDef *hrtc, uint32_t TimeStampEdge, uint32
 205:Drivers/STM32F0xx_HAL_Driver/Src/stm32f0xx_hal_rtc_ex.c **** {
 115              		.loc 1 205 0
 116              		.cfi_startproc
 117              		@ args = 0, pretend = 0, frame = 0
 118              		@ frame_needed = 0, uses_anonymous_args = 0
 119              	.LVL10:
 120 0000 30B5     		push	{r4, r5, lr}
 121              	.LCFI1:
 122              		.cfi_def_cfa_offset 12
 123              		.cfi_offset 4, -12
 124              		.cfi_offset 5, -8
 125              		.cfi_offset 14, -4
 126              	.LVL11:
 206:Drivers/STM32F0xx_HAL_Driver/Src/stm32f0xx_hal_rtc_ex.c ****   uint32_t tmpreg = 0U;
 207:Drivers/STM32F0xx_HAL_Driver/Src/stm32f0xx_hal_rtc_ex.c **** 
 208:Drivers/STM32F0xx_HAL_Driver/Src/stm32f0xx_hal_rtc_ex.c ****   /* Check the parameters */
 209:Drivers/STM32F0xx_HAL_Driver/Src/stm32f0xx_hal_rtc_ex.c ****   assert_param(IS_TIMESTAMP_EDGE(TimeStampEdge));
 210:Drivers/STM32F0xx_HAL_Driver/Src/stm32f0xx_hal_rtc_ex.c ****   assert_param(IS_RTC_TIMESTAMP_PIN(RTC_TimeStampPin));
 211:Drivers/STM32F0xx_HAL_Driver/Src/stm32f0xx_hal_rtc_ex.c **** 
 212:Drivers/STM32F0xx_HAL_Driver/Src/stm32f0xx_hal_rtc_ex.c ****   /* Process Locked */ 
 213:Drivers/STM32F0xx_HAL_Driver/Src/stm32f0xx_hal_rtc_ex.c ****   __HAL_LOCK(hrtc);
 127              		.loc 1 213 0
 128 0002 037F     		ldrb	r3, [r0, #28]
 129 0004 012B     		cmp	r3, #1
 130 0006 2CD0     		beq	.L8
 131              		.loc 1 213 0 is_stmt 0 discriminator 2
ARM GAS  /tmp/cc3tXaRV.s 			page 7


 132 0008 0124     		movs	r4, #1
 133 000a 0477     		strb	r4, [r0, #28]
 214:Drivers/STM32F0xx_HAL_Driver/Src/stm32f0xx_hal_rtc_ex.c **** 
 215:Drivers/STM32F0xx_HAL_Driver/Src/stm32f0xx_hal_rtc_ex.c ****   hrtc->State = HAL_RTC_STATE_BUSY;
 134              		.loc 1 215 0 is_stmt 1 discriminator 2
 135 000c 0223     		movs	r3, #2
 136 000e 4377     		strb	r3, [r0, #29]
 216:Drivers/STM32F0xx_HAL_Driver/Src/stm32f0xx_hal_rtc_ex.c **** 
 217:Drivers/STM32F0xx_HAL_Driver/Src/stm32f0xx_hal_rtc_ex.c ****   /* Get the RTC_CR register and clear the bits to be configured */
 218:Drivers/STM32F0xx_HAL_Driver/Src/stm32f0xx_hal_rtc_ex.c ****   tmpreg = (uint32_t)(hrtc->Instance->CR & (uint32_t)~(RTC_CR_TSEDGE | RTC_CR_TSE));
 137              		.loc 1 218 0 discriminator 2
 138 0010 0268     		ldr	r2, [r0]
 139              	.LVL12:
 140 0012 9368     		ldr	r3, [r2, #8]
 141 0014 144D     		ldr	r5, .L9
 142 0016 2B40     		ands	r3, r5
 143              	.LVL13:
 219:Drivers/STM32F0xx_HAL_Driver/Src/stm32f0xx_hal_rtc_ex.c **** 
 220:Drivers/STM32F0xx_HAL_Driver/Src/stm32f0xx_hal_rtc_ex.c ****   tmpreg |= TimeStampEdge;
 144              		.loc 1 220 0 discriminator 2
 145 0018 1943     		orrs	r1, r3
 146              	.LVL14:
 221:Drivers/STM32F0xx_HAL_Driver/Src/stm32f0xx_hal_rtc_ex.c **** 
 222:Drivers/STM32F0xx_HAL_Driver/Src/stm32f0xx_hal_rtc_ex.c ****   /* Disable the write protection for RTC registers */
 223:Drivers/STM32F0xx_HAL_Driver/Src/stm32f0xx_hal_rtc_ex.c ****   __HAL_RTC_WRITEPROTECTION_DISABLE(hrtc);
 147              		.loc 1 223 0 discriminator 2
 148 001a CA23     		movs	r3, #202
 149 001c 5362     		str	r3, [r2, #36]
 150 001e 0368     		ldr	r3, [r0]
 151 0020 5322     		movs	r2, #83
 152 0022 5A62     		str	r2, [r3, #36]
 224:Drivers/STM32F0xx_HAL_Driver/Src/stm32f0xx_hal_rtc_ex.c **** 
 225:Drivers/STM32F0xx_HAL_Driver/Src/stm32f0xx_hal_rtc_ex.c ****   /* Configure the Time Stamp TSEDGE and Enable bits */
 226:Drivers/STM32F0xx_HAL_Driver/Src/stm32f0xx_hal_rtc_ex.c ****   hrtc->Instance->CR = (uint32_t)tmpreg;
 153              		.loc 1 226 0 discriminator 2
 154 0024 0368     		ldr	r3, [r0]
 155 0026 9960     		str	r1, [r3, #8]
 227:Drivers/STM32F0xx_HAL_Driver/Src/stm32f0xx_hal_rtc_ex.c **** 
 228:Drivers/STM32F0xx_HAL_Driver/Src/stm32f0xx_hal_rtc_ex.c ****   __HAL_RTC_TIMESTAMP_ENABLE(hrtc);
 156              		.loc 1 228 0 discriminator 2
 157 0028 0268     		ldr	r2, [r0]
 158 002a 9168     		ldr	r1, [r2, #8]
 159              	.LVL15:
 160 002c 8023     		movs	r3, #128
 161              	.LVL16:
 162 002e 1B01     		lsls	r3, r3, #4
 163 0030 0B43     		orrs	r3, r1
 164 0032 9360     		str	r3, [r2, #8]
 229:Drivers/STM32F0xx_HAL_Driver/Src/stm32f0xx_hal_rtc_ex.c **** 
 230:Drivers/STM32F0xx_HAL_Driver/Src/stm32f0xx_hal_rtc_ex.c ****   /* Enable IT timestamp */
 231:Drivers/STM32F0xx_HAL_Driver/Src/stm32f0xx_hal_rtc_ex.c ****   __HAL_RTC_TIMESTAMP_ENABLE_IT(hrtc,RTC_IT_TS);
 165              		.loc 1 231 0 discriminator 2
 166 0034 0268     		ldr	r2, [r0]
 167 0036 9168     		ldr	r1, [r2, #8]
 168 0038 8023     		movs	r3, #128
 169 003a 1B02     		lsls	r3, r3, #8
 170 003c 0B43     		orrs	r3, r1
ARM GAS  /tmp/cc3tXaRV.s 			page 8


 171 003e 9360     		str	r3, [r2, #8]
 232:Drivers/STM32F0xx_HAL_Driver/Src/stm32f0xx_hal_rtc_ex.c **** 
 233:Drivers/STM32F0xx_HAL_Driver/Src/stm32f0xx_hal_rtc_ex.c ****   /* RTC timestamp Interrupt Configuration: EXTI configuration */
 234:Drivers/STM32F0xx_HAL_Driver/Src/stm32f0xx_hal_rtc_ex.c ****   __HAL_RTC_TAMPER_TIMESTAMP_EXTI_ENABLE_IT();
 172              		.loc 1 234 0 discriminator 2
 173 0040 0A4B     		ldr	r3, .L9+4
 174 0042 1968     		ldr	r1, [r3]
 175 0044 8022     		movs	r2, #128
 176 0046 1203     		lsls	r2, r2, #12
 177 0048 1143     		orrs	r1, r2
 178 004a 1960     		str	r1, [r3]
 235:Drivers/STM32F0xx_HAL_Driver/Src/stm32f0xx_hal_rtc_ex.c **** 
 236:Drivers/STM32F0xx_HAL_Driver/Src/stm32f0xx_hal_rtc_ex.c ****   __HAL_RTC_TAMPER_TIMESTAMP_EXTI_ENABLE_RISING_EDGE();
 179              		.loc 1 236 0 discriminator 2
 180 004c 9968     		ldr	r1, [r3, #8]
 181 004e 0A43     		orrs	r2, r1
 182 0050 9A60     		str	r2, [r3, #8]
 237:Drivers/STM32F0xx_HAL_Driver/Src/stm32f0xx_hal_rtc_ex.c **** 
 238:Drivers/STM32F0xx_HAL_Driver/Src/stm32f0xx_hal_rtc_ex.c ****   /* Enable the write protection for RTC registers */
 239:Drivers/STM32F0xx_HAL_Driver/Src/stm32f0xx_hal_rtc_ex.c ****   __HAL_RTC_WRITEPROTECTION_ENABLE(hrtc);
 183              		.loc 1 239 0 discriminator 2
 184 0052 0368     		ldr	r3, [r0]
 185 0054 FF22     		movs	r2, #255
 186 0056 5A62     		str	r2, [r3, #36]
 240:Drivers/STM32F0xx_HAL_Driver/Src/stm32f0xx_hal_rtc_ex.c **** 
 241:Drivers/STM32F0xx_HAL_Driver/Src/stm32f0xx_hal_rtc_ex.c ****   hrtc->State = HAL_RTC_STATE_READY;
 187              		.loc 1 241 0 discriminator 2
 188 0058 4477     		strb	r4, [r0, #29]
 242:Drivers/STM32F0xx_HAL_Driver/Src/stm32f0xx_hal_rtc_ex.c **** 
 243:Drivers/STM32F0xx_HAL_Driver/Src/stm32f0xx_hal_rtc_ex.c ****   /* Process Unlocked */
 244:Drivers/STM32F0xx_HAL_Driver/Src/stm32f0xx_hal_rtc_ex.c ****   __HAL_UNLOCK(hrtc);
 189              		.loc 1 244 0 discriminator 2
 190 005a 0023     		movs	r3, #0
 191 005c 0377     		strb	r3, [r0, #28]
 245:Drivers/STM32F0xx_HAL_Driver/Src/stm32f0xx_hal_rtc_ex.c **** 
 246:Drivers/STM32F0xx_HAL_Driver/Src/stm32f0xx_hal_rtc_ex.c ****   return HAL_OK;
 192              		.loc 1 246 0 discriminator 2
 193 005e 0020     		movs	r0, #0
 194              	.LVL17:
 195              	.L7:
 247:Drivers/STM32F0xx_HAL_Driver/Src/stm32f0xx_hal_rtc_ex.c **** }
 196              		.loc 1 247 0
 197              		@ sp needed
 198 0060 30BD     		pop	{r4, r5, pc}
 199              	.LVL18:
 200              	.L8:
 213:Drivers/STM32F0xx_HAL_Driver/Src/stm32f0xx_hal_rtc_ex.c **** 
 201              		.loc 1 213 0
 202 0062 0220     		movs	r0, #2
 203              	.LVL19:
 204 0064 FCE7     		b	.L7
 205              	.L10:
 206 0066 C046     		.align	2
 207              	.L9:
 208 0068 F7F7FFFF 		.word	-2057
 209 006c 00040140 		.word	1073808384
 210              		.cfi_endproc
ARM GAS  /tmp/cc3tXaRV.s 			page 9


 211              	.LFE36:
 213              		.section	.text.HAL_RTCEx_DeactivateTimeStamp,"ax",%progbits
 214              		.align	1
 215              		.global	HAL_RTCEx_DeactivateTimeStamp
 216              		.syntax unified
 217              		.code	16
 218              		.thumb_func
 219              		.fpu softvfp
 221              	HAL_RTCEx_DeactivateTimeStamp:
 222              	.LFB37:
 248:Drivers/STM32F0xx_HAL_Driver/Src/stm32f0xx_hal_rtc_ex.c **** 
 249:Drivers/STM32F0xx_HAL_Driver/Src/stm32f0xx_hal_rtc_ex.c **** /**
 250:Drivers/STM32F0xx_HAL_Driver/Src/stm32f0xx_hal_rtc_ex.c ****   * @brief  Deactivate TimeStamp.
 251:Drivers/STM32F0xx_HAL_Driver/Src/stm32f0xx_hal_rtc_ex.c ****   * @param  hrtc RTC handle
 252:Drivers/STM32F0xx_HAL_Driver/Src/stm32f0xx_hal_rtc_ex.c ****   * @retval HAL status
 253:Drivers/STM32F0xx_HAL_Driver/Src/stm32f0xx_hal_rtc_ex.c ****   */
 254:Drivers/STM32F0xx_HAL_Driver/Src/stm32f0xx_hal_rtc_ex.c **** HAL_StatusTypeDef HAL_RTCEx_DeactivateTimeStamp(RTC_HandleTypeDef *hrtc)
 255:Drivers/STM32F0xx_HAL_Driver/Src/stm32f0xx_hal_rtc_ex.c **** {
 223              		.loc 1 255 0
 224              		.cfi_startproc
 225              		@ args = 0, pretend = 0, frame = 0
 226              		@ frame_needed = 0, uses_anonymous_args = 0
 227              	.LVL20:
 228 0000 10B5     		push	{r4, lr}
 229              	.LCFI2:
 230              		.cfi_def_cfa_offset 8
 231              		.cfi_offset 4, -8
 232              		.cfi_offset 14, -4
 233              	.LVL21:
 256:Drivers/STM32F0xx_HAL_Driver/Src/stm32f0xx_hal_rtc_ex.c ****   uint32_t tmpreg = 0U;
 257:Drivers/STM32F0xx_HAL_Driver/Src/stm32f0xx_hal_rtc_ex.c **** 
 258:Drivers/STM32F0xx_HAL_Driver/Src/stm32f0xx_hal_rtc_ex.c ****   /* Process Locked */
 259:Drivers/STM32F0xx_HAL_Driver/Src/stm32f0xx_hal_rtc_ex.c ****   __HAL_LOCK(hrtc);
 234              		.loc 1 259 0
 235 0002 037F     		ldrb	r3, [r0, #28]
 236 0004 012B     		cmp	r3, #1
 237 0006 1BD0     		beq	.L13
 238              		.loc 1 259 0 is_stmt 0 discriminator 2
 239 0008 0122     		movs	r2, #1
 240 000a 0277     		strb	r2, [r0, #28]
 260:Drivers/STM32F0xx_HAL_Driver/Src/stm32f0xx_hal_rtc_ex.c **** 
 261:Drivers/STM32F0xx_HAL_Driver/Src/stm32f0xx_hal_rtc_ex.c ****   hrtc->State = HAL_RTC_STATE_BUSY;
 241              		.loc 1 261 0 is_stmt 1 discriminator 2
 242 000c 0223     		movs	r3, #2
 243 000e 4377     		strb	r3, [r0, #29]
 262:Drivers/STM32F0xx_HAL_Driver/Src/stm32f0xx_hal_rtc_ex.c **** 
 263:Drivers/STM32F0xx_HAL_Driver/Src/stm32f0xx_hal_rtc_ex.c ****   /* Disable the write protection for RTC registers */
 264:Drivers/STM32F0xx_HAL_Driver/Src/stm32f0xx_hal_rtc_ex.c ****   __HAL_RTC_WRITEPROTECTION_DISABLE(hrtc);
 244              		.loc 1 264 0 discriminator 2
 245 0010 0368     		ldr	r3, [r0]
 246 0012 CA21     		movs	r1, #202
 247 0014 5962     		str	r1, [r3, #36]
 248 0016 0368     		ldr	r3, [r0]
 249 0018 7739     		subs	r1, r1, #119
 250 001a 5962     		str	r1, [r3, #36]
 265:Drivers/STM32F0xx_HAL_Driver/Src/stm32f0xx_hal_rtc_ex.c **** 
 266:Drivers/STM32F0xx_HAL_Driver/Src/stm32f0xx_hal_rtc_ex.c ****   /* In case of interrupt mode is used, the interrupt source must disabled */
ARM GAS  /tmp/cc3tXaRV.s 			page 10


 267:Drivers/STM32F0xx_HAL_Driver/Src/stm32f0xx_hal_rtc_ex.c ****   __HAL_RTC_TIMESTAMP_DISABLE_IT(hrtc, RTC_IT_TS);
 251              		.loc 1 267 0 discriminator 2
 252 001c 0168     		ldr	r1, [r0]
 253 001e 8B68     		ldr	r3, [r1, #8]
 254 0020 084C     		ldr	r4, .L14
 255 0022 2340     		ands	r3, r4
 256 0024 8B60     		str	r3, [r1, #8]
 268:Drivers/STM32F0xx_HAL_Driver/Src/stm32f0xx_hal_rtc_ex.c **** 
 269:Drivers/STM32F0xx_HAL_Driver/Src/stm32f0xx_hal_rtc_ex.c ****   /* Get the RTC_CR register and clear the bits to be configured */
 270:Drivers/STM32F0xx_HAL_Driver/Src/stm32f0xx_hal_rtc_ex.c ****   tmpreg = (uint32_t)(hrtc->Instance->CR & (uint32_t)~(RTC_CR_TSEDGE | RTC_CR_TSE));
 257              		.loc 1 270 0 discriminator 2
 258 0026 0168     		ldr	r1, [r0]
 259 0028 8B68     		ldr	r3, [r1, #8]
 260 002a 074C     		ldr	r4, .L14+4
 261 002c 2340     		ands	r3, r4
 262              	.LVL22:
 271:Drivers/STM32F0xx_HAL_Driver/Src/stm32f0xx_hal_rtc_ex.c **** 
 272:Drivers/STM32F0xx_HAL_Driver/Src/stm32f0xx_hal_rtc_ex.c ****   /* Configure the Time Stamp TSEDGE and Enable bits */
 273:Drivers/STM32F0xx_HAL_Driver/Src/stm32f0xx_hal_rtc_ex.c ****   hrtc->Instance->CR = (uint32_t)tmpreg;
 263              		.loc 1 273 0 discriminator 2
 264 002e 8B60     		str	r3, [r1, #8]
 274:Drivers/STM32F0xx_HAL_Driver/Src/stm32f0xx_hal_rtc_ex.c **** 
 275:Drivers/STM32F0xx_HAL_Driver/Src/stm32f0xx_hal_rtc_ex.c ****   /* Enable the write protection for RTC registers */
 276:Drivers/STM32F0xx_HAL_Driver/Src/stm32f0xx_hal_rtc_ex.c ****   __HAL_RTC_WRITEPROTECTION_ENABLE(hrtc);
 265              		.loc 1 276 0 discriminator 2
 266 0030 0368     		ldr	r3, [r0]
 267              	.LVL23:
 268 0032 FF21     		movs	r1, #255
 269              	.LVL24:
 270 0034 5962     		str	r1, [r3, #36]
 277:Drivers/STM32F0xx_HAL_Driver/Src/stm32f0xx_hal_rtc_ex.c **** 
 278:Drivers/STM32F0xx_HAL_Driver/Src/stm32f0xx_hal_rtc_ex.c ****   hrtc->State = HAL_RTC_STATE_READY;
 271              		.loc 1 278 0 discriminator 2
 272 0036 4277     		strb	r2, [r0, #29]
 279:Drivers/STM32F0xx_HAL_Driver/Src/stm32f0xx_hal_rtc_ex.c **** 
 280:Drivers/STM32F0xx_HAL_Driver/Src/stm32f0xx_hal_rtc_ex.c ****   /* Process Unlocked */
 281:Drivers/STM32F0xx_HAL_Driver/Src/stm32f0xx_hal_rtc_ex.c ****   __HAL_UNLOCK(hrtc);
 273              		.loc 1 281 0 discriminator 2
 274 0038 0023     		movs	r3, #0
 275 003a 0377     		strb	r3, [r0, #28]
 282:Drivers/STM32F0xx_HAL_Driver/Src/stm32f0xx_hal_rtc_ex.c **** 
 283:Drivers/STM32F0xx_HAL_Driver/Src/stm32f0xx_hal_rtc_ex.c ****   return HAL_OK;
 276              		.loc 1 283 0 discriminator 2
 277 003c 0020     		movs	r0, #0
 278              	.LVL25:
 279              	.L12:
 284:Drivers/STM32F0xx_HAL_Driver/Src/stm32f0xx_hal_rtc_ex.c **** }
 280              		.loc 1 284 0
 281              		@ sp needed
 282 003e 10BD     		pop	{r4, pc}
 283              	.LVL26:
 284              	.L13:
 259:Drivers/STM32F0xx_HAL_Driver/Src/stm32f0xx_hal_rtc_ex.c **** 
 285              		.loc 1 259 0
 286 0040 0220     		movs	r0, #2
 287              	.LVL27:
 288 0042 FCE7     		b	.L12
ARM GAS  /tmp/cc3tXaRV.s 			page 11


 289              	.L15:
 290              		.align	2
 291              	.L14:
 292 0044 FF7FFFFF 		.word	-32769
 293 0048 F7F7FFFF 		.word	-2057
 294              		.cfi_endproc
 295              	.LFE37:
 297              		.section	.text.HAL_RTCEx_GetTimeStamp,"ax",%progbits
 298              		.align	1
 299              		.global	HAL_RTCEx_GetTimeStamp
 300              		.syntax unified
 301              		.code	16
 302              		.thumb_func
 303              		.fpu softvfp
 305              	HAL_RTCEx_GetTimeStamp:
 306              	.LFB38:
 285:Drivers/STM32F0xx_HAL_Driver/Src/stm32f0xx_hal_rtc_ex.c **** 
 286:Drivers/STM32F0xx_HAL_Driver/Src/stm32f0xx_hal_rtc_ex.c **** /**
 287:Drivers/STM32F0xx_HAL_Driver/Src/stm32f0xx_hal_rtc_ex.c ****   * @brief  Get the RTC TimeStamp value.
 288:Drivers/STM32F0xx_HAL_Driver/Src/stm32f0xx_hal_rtc_ex.c ****   * @param  hrtc RTC handle
 289:Drivers/STM32F0xx_HAL_Driver/Src/stm32f0xx_hal_rtc_ex.c **** 
 290:Drivers/STM32F0xx_HAL_Driver/Src/stm32f0xx_hal_rtc_ex.c ****   * @param  sTimeStamp Pointer to Time structure
 291:Drivers/STM32F0xx_HAL_Driver/Src/stm32f0xx_hal_rtc_ex.c ****   * @param  sTimeStampDate Pointer to Date structure  
 292:Drivers/STM32F0xx_HAL_Driver/Src/stm32f0xx_hal_rtc_ex.c ****   * @param  Format specifies the format of the entered parameters.
 293:Drivers/STM32F0xx_HAL_Driver/Src/stm32f0xx_hal_rtc_ex.c ****   *          This parameter can be one of the following values:
 294:Drivers/STM32F0xx_HAL_Driver/Src/stm32f0xx_hal_rtc_ex.c ****   *             @arg RTC_FORMAT_BIN: Binary data format 
 295:Drivers/STM32F0xx_HAL_Driver/Src/stm32f0xx_hal_rtc_ex.c ****   *             @arg RTC_FORMAT_BCD: BCD data format
 296:Drivers/STM32F0xx_HAL_Driver/Src/stm32f0xx_hal_rtc_ex.c ****   * @retval HAL status
 297:Drivers/STM32F0xx_HAL_Driver/Src/stm32f0xx_hal_rtc_ex.c ****   */
 298:Drivers/STM32F0xx_HAL_Driver/Src/stm32f0xx_hal_rtc_ex.c **** HAL_StatusTypeDef HAL_RTCEx_GetTimeStamp(RTC_HandleTypeDef *hrtc, RTC_TimeTypeDef* sTimeStamp, RTC_
 299:Drivers/STM32F0xx_HAL_Driver/Src/stm32f0xx_hal_rtc_ex.c **** {
 307              		.loc 1 299 0
 308              		.cfi_startproc
 309              		@ args = 0, pretend = 0, frame = 0
 310              		@ frame_needed = 0, uses_anonymous_args = 0
 311              	.LVL28:
 312 0000 F8B5     		push	{r3, r4, r5, r6, r7, lr}
 313              	.LCFI3:
 314              		.cfi_def_cfa_offset 24
 315              		.cfi_offset 3, -24
 316              		.cfi_offset 4, -20
 317              		.cfi_offset 5, -16
 318              		.cfi_offset 6, -12
 319              		.cfi_offset 7, -8
 320              		.cfi_offset 14, -4
 321 0002 CE46     		mov	lr, r9
 322 0004 4746     		mov	r7, r8
 323 0006 80B5     		push	{r7, lr}
 324              	.LCFI4:
 325              		.cfi_def_cfa_offset 32
 326              		.cfi_offset 8, -32
 327              		.cfi_offset 9, -28
 328 0008 0600     		movs	r6, r0
 329 000a 0C00     		movs	r4, r1
 330 000c 1500     		movs	r5, r2
 331 000e 9946     		mov	r9, r3
 332              	.LVL29:
ARM GAS  /tmp/cc3tXaRV.s 			page 12


 300:Drivers/STM32F0xx_HAL_Driver/Src/stm32f0xx_hal_rtc_ex.c ****   uint32_t tmptime = 0U, tmpdate = 0U;
 301:Drivers/STM32F0xx_HAL_Driver/Src/stm32f0xx_hal_rtc_ex.c **** 
 302:Drivers/STM32F0xx_HAL_Driver/Src/stm32f0xx_hal_rtc_ex.c ****   /* Check the parameters */
 303:Drivers/STM32F0xx_HAL_Driver/Src/stm32f0xx_hal_rtc_ex.c ****   assert_param(IS_RTC_FORMAT(Format));
 304:Drivers/STM32F0xx_HAL_Driver/Src/stm32f0xx_hal_rtc_ex.c **** 
 305:Drivers/STM32F0xx_HAL_Driver/Src/stm32f0xx_hal_rtc_ex.c ****   /* Get the TimeStamp time and date registers values */
 306:Drivers/STM32F0xx_HAL_Driver/Src/stm32f0xx_hal_rtc_ex.c ****   tmptime = (uint32_t)(hrtc->Instance->TSTR & RTC_TR_RESERVED_MASK);
 333              		.loc 1 306 0
 334 0010 0268     		ldr	r2, [r0]
 335              	.LVL30:
 336 0012 106B     		ldr	r0, [r2, #48]
 337              	.LVL31:
 338 0014 2549     		ldr	r1, .L19
 339              	.LVL32:
 340 0016 0140     		ands	r1, r0
 341              	.LVL33:
 307:Drivers/STM32F0xx_HAL_Driver/Src/stm32f0xx_hal_rtc_ex.c ****   tmpdate = (uint32_t)(hrtc->Instance->TSDR & RTC_DR_RESERVED_MASK);
 342              		.loc 1 307 0
 343 0018 506B     		ldr	r0, [r2, #52]
 344 001a 254A     		ldr	r2, .L19+4
 345 001c 0240     		ands	r2, r0
 346              	.LVL34:
 308:Drivers/STM32F0xx_HAL_Driver/Src/stm32f0xx_hal_rtc_ex.c **** 
 309:Drivers/STM32F0xx_HAL_Driver/Src/stm32f0xx_hal_rtc_ex.c ****   /* Fill the Time structure fields with the read parameters */
 310:Drivers/STM32F0xx_HAL_Driver/Src/stm32f0xx_hal_rtc_ex.c ****   sTimeStamp->Hours = (uint8_t)((tmptime & (RTC_TR_HT | RTC_TR_HU)) >> 16U);
 347              		.loc 1 310 0
 348 001e 0B0C     		lsrs	r3, r1, #16
 349              	.LVL35:
 350 0020 9846     		mov	r8, r3
 351 0022 3F20     		movs	r0, #63
 352 0024 1F00     		movs	r7, r3
 353 0026 0740     		ands	r7, r0
 354 0028 2770     		strb	r7, [r4]
 311:Drivers/STM32F0xx_HAL_Driver/Src/stm32f0xx_hal_rtc_ex.c ****   sTimeStamp->Minutes = (uint8_t)((tmptime & (RTC_TR_MNT | RTC_TR_MNU)) >> 8U);
 355              		.loc 1 311 0
 356 002a 0B0A     		lsrs	r3, r1, #8
 357 002c 7F27     		movs	r7, #127
 358 002e 3B40     		ands	r3, r7
 359 0030 6370     		strb	r3, [r4, #1]
 312:Drivers/STM32F0xx_HAL_Driver/Src/stm32f0xx_hal_rtc_ex.c ****   sTimeStamp->Seconds = (uint8_t)(tmptime & (RTC_TR_ST | RTC_TR_SU));
 360              		.loc 1 312 0
 361 0032 3940     		ands	r1, r7
 362              	.LVL36:
 363 0034 A170     		strb	r1, [r4, #2]
 313:Drivers/STM32F0xx_HAL_Driver/Src/stm32f0xx_hal_rtc_ex.c ****   sTimeStamp->TimeFormat = (uint8_t)((tmptime & (RTC_TR_PM)) >> 16U);
 364              		.loc 1 313 0
 365 0036 4021     		movs	r1, #64
 366 0038 4346     		mov	r3, r8
 367 003a 1940     		ands	r1, r3
 368 003c E170     		strb	r1, [r4, #3]
 314:Drivers/STM32F0xx_HAL_Driver/Src/stm32f0xx_hal_rtc_ex.c ****   sTimeStamp->SubSeconds = (uint32_t) hrtc->Instance->TSSSR;
 369              		.loc 1 314 0
 370 003e 3168     		ldr	r1, [r6]
 371 0040 896B     		ldr	r1, [r1, #56]
 372 0042 6160     		str	r1, [r4, #4]
 315:Drivers/STM32F0xx_HAL_Driver/Src/stm32f0xx_hal_rtc_ex.c **** 
 316:Drivers/STM32F0xx_HAL_Driver/Src/stm32f0xx_hal_rtc_ex.c ****   /* Fill the Date structure fields with the read parameters */
ARM GAS  /tmp/cc3tXaRV.s 			page 13


 317:Drivers/STM32F0xx_HAL_Driver/Src/stm32f0xx_hal_rtc_ex.c ****   sTimeStampDate->Year = 0;
 373              		.loc 1 317 0
 374 0044 0021     		movs	r1, #0
 375 0046 E970     		strb	r1, [r5, #3]
 318:Drivers/STM32F0xx_HAL_Driver/Src/stm32f0xx_hal_rtc_ex.c ****   sTimeStampDate->Month = (uint8_t)((tmpdate & (RTC_DR_MT | RTC_DR_MU)) >> 8U);
 376              		.loc 1 318 0
 377 0048 170A     		lsrs	r7, r2, #8
 378 004a 1F31     		adds	r1, r1, #31
 379 004c 3940     		ands	r1, r7
 380 004e 6970     		strb	r1, [r5, #1]
 319:Drivers/STM32F0xx_HAL_Driver/Src/stm32f0xx_hal_rtc_ex.c ****   sTimeStampDate->Date = (uint8_t)(tmpdate & (RTC_DR_DT | RTC_DR_DU));
 381              		.loc 1 319 0
 382 0050 1040     		ands	r0, r2
 383 0052 A870     		strb	r0, [r5, #2]
 320:Drivers/STM32F0xx_HAL_Driver/Src/stm32f0xx_hal_rtc_ex.c ****   sTimeStampDate->WeekDay = (uint8_t)((tmpdate & (RTC_DR_WDU)) >> 13U);
 384              		.loc 1 320 0
 385 0054 520B     		lsrs	r2, r2, #13
 386              	.LVL37:
 387 0056 0721     		movs	r1, #7
 388 0058 0A40     		ands	r2, r1
 389 005a 2A70     		strb	r2, [r5]
 321:Drivers/STM32F0xx_HAL_Driver/Src/stm32f0xx_hal_rtc_ex.c **** 
 322:Drivers/STM32F0xx_HAL_Driver/Src/stm32f0xx_hal_rtc_ex.c ****   /* Check the input parameters format */
 323:Drivers/STM32F0xx_HAL_Driver/Src/stm32f0xx_hal_rtc_ex.c ****   if(Format == RTC_FORMAT_BIN)
 390              		.loc 1 323 0
 391 005c 4B46     		mov	r3, r9
 392 005e 002B     		cmp	r3, #0
 393 0060 0BD0     		beq	.L18
 394              	.L17:
 324:Drivers/STM32F0xx_HAL_Driver/Src/stm32f0xx_hal_rtc_ex.c ****   {
 325:Drivers/STM32F0xx_HAL_Driver/Src/stm32f0xx_hal_rtc_ex.c ****     /* Convert the TimeStamp structure parameters to Binary format */
 326:Drivers/STM32F0xx_HAL_Driver/Src/stm32f0xx_hal_rtc_ex.c ****     sTimeStamp->Hours = (uint8_t)RTC_Bcd2ToByte(sTimeStamp->Hours);
 327:Drivers/STM32F0xx_HAL_Driver/Src/stm32f0xx_hal_rtc_ex.c ****     sTimeStamp->Minutes = (uint8_t)RTC_Bcd2ToByte(sTimeStamp->Minutes);
 328:Drivers/STM32F0xx_HAL_Driver/Src/stm32f0xx_hal_rtc_ex.c ****     sTimeStamp->Seconds = (uint8_t)RTC_Bcd2ToByte(sTimeStamp->Seconds);
 329:Drivers/STM32F0xx_HAL_Driver/Src/stm32f0xx_hal_rtc_ex.c **** 
 330:Drivers/STM32F0xx_HAL_Driver/Src/stm32f0xx_hal_rtc_ex.c ****     /* Convert the DateTimeStamp structure parameters to Binary format */
 331:Drivers/STM32F0xx_HAL_Driver/Src/stm32f0xx_hal_rtc_ex.c ****     sTimeStampDate->Month = (uint8_t)RTC_Bcd2ToByte(sTimeStampDate->Month);
 332:Drivers/STM32F0xx_HAL_Driver/Src/stm32f0xx_hal_rtc_ex.c ****     sTimeStampDate->Date = (uint8_t)RTC_Bcd2ToByte(sTimeStampDate->Date);
 333:Drivers/STM32F0xx_HAL_Driver/Src/stm32f0xx_hal_rtc_ex.c ****     sTimeStampDate->WeekDay = (uint8_t)RTC_Bcd2ToByte(sTimeStampDate->WeekDay);
 334:Drivers/STM32F0xx_HAL_Driver/Src/stm32f0xx_hal_rtc_ex.c ****   }
 335:Drivers/STM32F0xx_HAL_Driver/Src/stm32f0xx_hal_rtc_ex.c **** 
 336:Drivers/STM32F0xx_HAL_Driver/Src/stm32f0xx_hal_rtc_ex.c ****   /* Clear the TIMESTAMP Flag */
 337:Drivers/STM32F0xx_HAL_Driver/Src/stm32f0xx_hal_rtc_ex.c ****   __HAL_RTC_TIMESTAMP_CLEAR_FLAG(hrtc, RTC_FLAG_TSF);
 395              		.loc 1 337 0
 396 0062 3168     		ldr	r1, [r6]
 397 0064 CA68     		ldr	r2, [r1, #12]
 398 0066 FF23     		movs	r3, #255
 399 0068 1A40     		ands	r2, r3
 400 006a 124B     		ldr	r3, .L19+8
 401 006c 1343     		orrs	r3, r2
 402 006e CB60     		str	r3, [r1, #12]
 338:Drivers/STM32F0xx_HAL_Driver/Src/stm32f0xx_hal_rtc_ex.c **** 
 339:Drivers/STM32F0xx_HAL_Driver/Src/stm32f0xx_hal_rtc_ex.c ****   return HAL_OK;
 340:Drivers/STM32F0xx_HAL_Driver/Src/stm32f0xx_hal_rtc_ex.c **** }
 403              		.loc 1 340 0
 404 0070 0020     		movs	r0, #0
 405              		@ sp needed
ARM GAS  /tmp/cc3tXaRV.s 			page 14


 406              	.LVL38:
 407              	.LVL39:
 408              	.LVL40:
 409              	.LVL41:
 410 0072 0CBC     		pop	{r2, r3}
 411 0074 9046     		mov	r8, r2
 412 0076 9946     		mov	r9, r3
 413 0078 F8BD     		pop	{r3, r4, r5, r6, r7, pc}
 414              	.LVL42:
 415              	.L18:
 326:Drivers/STM32F0xx_HAL_Driver/Src/stm32f0xx_hal_rtc_ex.c ****     sTimeStamp->Minutes = (uint8_t)RTC_Bcd2ToByte(sTimeStamp->Minutes);
 416              		.loc 1 326 0
 417 007a 2078     		ldrb	r0, [r4]
 418 007c FFF7FEFF 		bl	RTC_Bcd2ToByte
 419              	.LVL43:
 420 0080 2070     		strb	r0, [r4]
 327:Drivers/STM32F0xx_HAL_Driver/Src/stm32f0xx_hal_rtc_ex.c ****     sTimeStamp->Seconds = (uint8_t)RTC_Bcd2ToByte(sTimeStamp->Seconds);
 421              		.loc 1 327 0
 422 0082 6078     		ldrb	r0, [r4, #1]
 423 0084 FFF7FEFF 		bl	RTC_Bcd2ToByte
 424              	.LVL44:
 425 0088 6070     		strb	r0, [r4, #1]
 328:Drivers/STM32F0xx_HAL_Driver/Src/stm32f0xx_hal_rtc_ex.c **** 
 426              		.loc 1 328 0
 427 008a A078     		ldrb	r0, [r4, #2]
 428 008c FFF7FEFF 		bl	RTC_Bcd2ToByte
 429              	.LVL45:
 430 0090 A070     		strb	r0, [r4, #2]
 331:Drivers/STM32F0xx_HAL_Driver/Src/stm32f0xx_hal_rtc_ex.c ****     sTimeStampDate->Date = (uint8_t)RTC_Bcd2ToByte(sTimeStampDate->Date);
 431              		.loc 1 331 0
 432 0092 6878     		ldrb	r0, [r5, #1]
 433 0094 FFF7FEFF 		bl	RTC_Bcd2ToByte
 434              	.LVL46:
 435 0098 6870     		strb	r0, [r5, #1]
 332:Drivers/STM32F0xx_HAL_Driver/Src/stm32f0xx_hal_rtc_ex.c ****     sTimeStampDate->WeekDay = (uint8_t)RTC_Bcd2ToByte(sTimeStampDate->WeekDay);
 436              		.loc 1 332 0
 437 009a A878     		ldrb	r0, [r5, #2]
 438 009c FFF7FEFF 		bl	RTC_Bcd2ToByte
 439              	.LVL47:
 440 00a0 A870     		strb	r0, [r5, #2]
 333:Drivers/STM32F0xx_HAL_Driver/Src/stm32f0xx_hal_rtc_ex.c ****   }
 441              		.loc 1 333 0
 442 00a2 2878     		ldrb	r0, [r5]
 443 00a4 FFF7FEFF 		bl	RTC_Bcd2ToByte
 444              	.LVL48:
 445 00a8 2870     		strb	r0, [r5]
 446 00aa DAE7     		b	.L17
 447              	.L20:
 448              		.align	2
 449              	.L19:
 450 00ac 7F7F7F00 		.word	8355711
 451 00b0 3FFFFF00 		.word	16777023
 452 00b4 7FF7FFFF 		.word	-2177
 453              		.cfi_endproc
 454              	.LFE38:
 456              		.section	.text.HAL_RTCEx_SetTamper,"ax",%progbits
 457              		.align	1
ARM GAS  /tmp/cc3tXaRV.s 			page 15


 458              		.global	HAL_RTCEx_SetTamper
 459              		.syntax unified
 460              		.code	16
 461              		.thumb_func
 462              		.fpu softvfp
 464              	HAL_RTCEx_SetTamper:
 465              	.LFB39:
 341:Drivers/STM32F0xx_HAL_Driver/Src/stm32f0xx_hal_rtc_ex.c **** 
 342:Drivers/STM32F0xx_HAL_Driver/Src/stm32f0xx_hal_rtc_ex.c **** /**
 343:Drivers/STM32F0xx_HAL_Driver/Src/stm32f0xx_hal_rtc_ex.c ****   * @brief  Set Tamper
 344:Drivers/STM32F0xx_HAL_Driver/Src/stm32f0xx_hal_rtc_ex.c ****   * @note   By calling this API we disable the tamper interrupt for all tampers.
 345:Drivers/STM32F0xx_HAL_Driver/Src/stm32f0xx_hal_rtc_ex.c ****   * @param  hrtc RTC handle
 346:Drivers/STM32F0xx_HAL_Driver/Src/stm32f0xx_hal_rtc_ex.c ****   * @param  sTamper Pointer to Tamper Structure.
 347:Drivers/STM32F0xx_HAL_Driver/Src/stm32f0xx_hal_rtc_ex.c ****   * @retval HAL status
 348:Drivers/STM32F0xx_HAL_Driver/Src/stm32f0xx_hal_rtc_ex.c ****   */
 349:Drivers/STM32F0xx_HAL_Driver/Src/stm32f0xx_hal_rtc_ex.c **** HAL_StatusTypeDef HAL_RTCEx_SetTamper(RTC_HandleTypeDef *hrtc, RTC_TamperTypeDef* sTamper)
 350:Drivers/STM32F0xx_HAL_Driver/Src/stm32f0xx_hal_rtc_ex.c **** {
 466              		.loc 1 350 0
 467              		.cfi_startproc
 468              		@ args = 0, pretend = 0, frame = 0
 469              		@ frame_needed = 0, uses_anonymous_args = 0
 470              	.LVL49:
 471 0000 30B5     		push	{r4, r5, lr}
 472              	.LCFI5:
 473              		.cfi_def_cfa_offset 12
 474              		.cfi_offset 4, -12
 475              		.cfi_offset 5, -8
 476              		.cfi_offset 14, -4
 477              	.LVL50:
 351:Drivers/STM32F0xx_HAL_Driver/Src/stm32f0xx_hal_rtc_ex.c ****   uint32_t tmpreg = 0U;
 352:Drivers/STM32F0xx_HAL_Driver/Src/stm32f0xx_hal_rtc_ex.c **** 
 353:Drivers/STM32F0xx_HAL_Driver/Src/stm32f0xx_hal_rtc_ex.c ****   /* Check the parameters */
 354:Drivers/STM32F0xx_HAL_Driver/Src/stm32f0xx_hal_rtc_ex.c ****   assert_param(IS_RTC_TAMPER(sTamper->Tamper));
 355:Drivers/STM32F0xx_HAL_Driver/Src/stm32f0xx_hal_rtc_ex.c ****   assert_param(IS_RTC_TAMPER_TRIGGER(sTamper->Trigger));
 356:Drivers/STM32F0xx_HAL_Driver/Src/stm32f0xx_hal_rtc_ex.c ****   assert_param(IS_RTC_TAMPER_FILTER(sTamper->Filter));
 357:Drivers/STM32F0xx_HAL_Driver/Src/stm32f0xx_hal_rtc_ex.c ****   assert_param(IS_RTC_TAMPER_SAMPLING_FREQ(sTamper->SamplingFrequency));
 358:Drivers/STM32F0xx_HAL_Driver/Src/stm32f0xx_hal_rtc_ex.c ****   assert_param(IS_RTC_TAMPER_PRECHARGE_DURATION(sTamper->PrechargeDuration));
 359:Drivers/STM32F0xx_HAL_Driver/Src/stm32f0xx_hal_rtc_ex.c ****   assert_param(IS_RTC_TAMPER_PULLUP_STATE(sTamper->TamperPullUp));
 360:Drivers/STM32F0xx_HAL_Driver/Src/stm32f0xx_hal_rtc_ex.c ****   assert_param(IS_RTC_TAMPER_TIMESTAMPONTAMPER_DETECTION(sTamper->TimeStampOnTamperDetection));
 361:Drivers/STM32F0xx_HAL_Driver/Src/stm32f0xx_hal_rtc_ex.c **** 
 362:Drivers/STM32F0xx_HAL_Driver/Src/stm32f0xx_hal_rtc_ex.c ****   /* Process Locked */
 363:Drivers/STM32F0xx_HAL_Driver/Src/stm32f0xx_hal_rtc_ex.c ****   __HAL_LOCK(hrtc);
 478              		.loc 1 363 0
 479 0002 037F     		ldrb	r3, [r0, #28]
 480 0004 012B     		cmp	r3, #1
 481 0006 28D0     		beq	.L24
 482              		.loc 1 363 0 is_stmt 0 discriminator 2
 483 0008 0123     		movs	r3, #1
 484 000a 0377     		strb	r3, [r0, #28]
 364:Drivers/STM32F0xx_HAL_Driver/Src/stm32f0xx_hal_rtc_ex.c **** 
 365:Drivers/STM32F0xx_HAL_Driver/Src/stm32f0xx_hal_rtc_ex.c ****   hrtc->State = HAL_RTC_STATE_BUSY;
 485              		.loc 1 365 0 is_stmt 1 discriminator 2
 486 000c 0133     		adds	r3, r3, #1
 487 000e 4377     		strb	r3, [r0, #29]
 366:Drivers/STM32F0xx_HAL_Driver/Src/stm32f0xx_hal_rtc_ex.c **** 
 367:Drivers/STM32F0xx_HAL_Driver/Src/stm32f0xx_hal_rtc_ex.c ****   if(sTamper->Trigger != RTC_TAMPERTRIGGER_RISINGEDGE)
 488              		.loc 1 367 0 discriminator 2
ARM GAS  /tmp/cc3tXaRV.s 			page 16


 489 0010 4B68     		ldr	r3, [r1, #4]
 490 0012 002B     		cmp	r3, #0
 491 0014 02D0     		beq	.L23
 368:Drivers/STM32F0xx_HAL_Driver/Src/stm32f0xx_hal_rtc_ex.c ****   {
 369:Drivers/STM32F0xx_HAL_Driver/Src/stm32f0xx_hal_rtc_ex.c ****     sTamper->Trigger = (uint32_t)(sTamper->Tamper << 1U);
 492              		.loc 1 369 0
 493 0016 0B68     		ldr	r3, [r1]
 494 0018 5B00     		lsls	r3, r3, #1
 495 001a 4B60     		str	r3, [r1, #4]
 496              	.L23:
 370:Drivers/STM32F0xx_HAL_Driver/Src/stm32f0xx_hal_rtc_ex.c ****   }
 371:Drivers/STM32F0xx_HAL_Driver/Src/stm32f0xx_hal_rtc_ex.c **** 
 372:Drivers/STM32F0xx_HAL_Driver/Src/stm32f0xx_hal_rtc_ex.c ****   tmpreg = ((uint32_t)sTamper->Tamper | (uint32_t)sTamper->Trigger | (uint32_t)sTamper->Filter |\
 497              		.loc 1 372 0
 498 001c 0A68     		ldr	r2, [r1]
 499 001e 4B68     		ldr	r3, [r1, #4]
 500 0020 1343     		orrs	r3, r2
 501 0022 8C68     		ldr	r4, [r1, #8]
 502 0024 2343     		orrs	r3, r4
 503 0026 CC68     		ldr	r4, [r1, #12]
 504 0028 2343     		orrs	r3, r4
 373:Drivers/STM32F0xx_HAL_Driver/Src/stm32f0xx_hal_rtc_ex.c ****             (uint32_t)sTamper->SamplingFrequency | (uint32_t)sTamper->PrechargeDuration |\
 505              		.loc 1 373 0
 506 002a 0C69     		ldr	r4, [r1, #16]
 507 002c 2343     		orrs	r3, r4
 508 002e 4C69     		ldr	r4, [r1, #20]
 509 0030 2343     		orrs	r3, r4
 374:Drivers/STM32F0xx_HAL_Driver/Src/stm32f0xx_hal_rtc_ex.c ****             (uint32_t)sTamper->TamperPullUp | sTamper->TimeStampOnTamperDetection);
 510              		.loc 1 374 0
 511 0032 8969     		ldr	r1, [r1, #24]
 512              	.LVL51:
 372:Drivers/STM32F0xx_HAL_Driver/Src/stm32f0xx_hal_rtc_ex.c ****             (uint32_t)sTamper->SamplingFrequency | (uint32_t)sTamper->PrechargeDuration |\
 513              		.loc 1 372 0
 514 0034 0B43     		orrs	r3, r1
 515              	.LVL52:
 375:Drivers/STM32F0xx_HAL_Driver/Src/stm32f0xx_hal_rtc_ex.c **** 
 376:Drivers/STM32F0xx_HAL_Driver/Src/stm32f0xx_hal_rtc_ex.c ****   hrtc->Instance->TAFCR &= (uint32_t)~((uint32_t)sTamper->Tamper | (uint32_t)(sTamper->Tamper << 1U
 516              		.loc 1 376 0
 517 0036 0568     		ldr	r5, [r0]
 518 0038 296C     		ldr	r1, [r5, #64]
 519 003a 5400     		lsls	r4, r2, #1
 520 003c 2243     		orrs	r2, r4
 377:Drivers/STM32F0xx_HAL_Driver/Src/stm32f0xx_hal_rtc_ex.c ****                                        (uint32_t)RTC_TAFCR_TAMPFREQ | (uint32_t)RTC_TAFCR_TAMPFLT |
 378:Drivers/STM32F0xx_HAL_Driver/Src/stm32f0xx_hal_rtc_ex.c ****                                        (uint32_t)RTC_TAFCR_TAMPPUDIS | (uint32_t)RTC_TAFCR_TAMPIE);
 521              		.loc 1 378 0
 522 003e 084C     		ldr	r4, .L25
 523 0040 2243     		orrs	r2, r4
 376:Drivers/STM32F0xx_HAL_Driver/Src/stm32f0xx_hal_rtc_ex.c ****                                        (uint32_t)RTC_TAFCR_TAMPFREQ | (uint32_t)RTC_TAFCR_TAMPFLT |
 524              		.loc 1 376 0
 525 0042 9143     		bics	r1, r2
 526 0044 2964     		str	r1, [r5, #64]
 379:Drivers/STM32F0xx_HAL_Driver/Src/stm32f0xx_hal_rtc_ex.c **** 
 380:Drivers/STM32F0xx_HAL_Driver/Src/stm32f0xx_hal_rtc_ex.c ****   hrtc->Instance->TAFCR |= tmpreg;
 527              		.loc 1 380 0
 528 0046 0268     		ldr	r2, [r0]
 529 0048 116C     		ldr	r1, [r2, #64]
 530 004a 0B43     		orrs	r3, r1
ARM GAS  /tmp/cc3tXaRV.s 			page 17


 531              	.LVL53:
 532 004c 1364     		str	r3, [r2, #64]
 381:Drivers/STM32F0xx_HAL_Driver/Src/stm32f0xx_hal_rtc_ex.c ****   
 382:Drivers/STM32F0xx_HAL_Driver/Src/stm32f0xx_hal_rtc_ex.c ****   hrtc->State = HAL_RTC_STATE_READY; 
 533              		.loc 1 382 0
 534 004e 0123     		movs	r3, #1
 535 0050 4377     		strb	r3, [r0, #29]
 383:Drivers/STM32F0xx_HAL_Driver/Src/stm32f0xx_hal_rtc_ex.c **** 
 384:Drivers/STM32F0xx_HAL_Driver/Src/stm32f0xx_hal_rtc_ex.c ****   /* Process Unlocked */
 385:Drivers/STM32F0xx_HAL_Driver/Src/stm32f0xx_hal_rtc_ex.c ****   __HAL_UNLOCK(hrtc);
 536              		.loc 1 385 0
 537 0052 0023     		movs	r3, #0
 538 0054 0377     		strb	r3, [r0, #28]
 386:Drivers/STM32F0xx_HAL_Driver/Src/stm32f0xx_hal_rtc_ex.c **** 
 387:Drivers/STM32F0xx_HAL_Driver/Src/stm32f0xx_hal_rtc_ex.c ****   return HAL_OK;
 539              		.loc 1 387 0
 540 0056 0020     		movs	r0, #0
 541              	.LVL54:
 542              	.L22:
 388:Drivers/STM32F0xx_HAL_Driver/Src/stm32f0xx_hal_rtc_ex.c **** }
 543              		.loc 1 388 0
 544              		@ sp needed
 545 0058 30BD     		pop	{r4, r5, pc}
 546              	.LVL55:
 547              	.L24:
 363:Drivers/STM32F0xx_HAL_Driver/Src/stm32f0xx_hal_rtc_ex.c **** 
 548              		.loc 1 363 0
 549 005a 0220     		movs	r0, #2
 550              	.LVL56:
 551 005c FCE7     		b	.L22
 552              	.L26:
 553 005e C046     		.align	2
 554              	.L25:
 555 0060 84FF0000 		.word	65412
 556              		.cfi_endproc
 557              	.LFE39:
 559              		.section	.text.HAL_RTCEx_SetTamper_IT,"ax",%progbits
 560              		.align	1
 561              		.global	HAL_RTCEx_SetTamper_IT
 562              		.syntax unified
 563              		.code	16
 564              		.thumb_func
 565              		.fpu softvfp
 567              	HAL_RTCEx_SetTamper_IT:
 568              	.LFB40:
 389:Drivers/STM32F0xx_HAL_Driver/Src/stm32f0xx_hal_rtc_ex.c **** 
 390:Drivers/STM32F0xx_HAL_Driver/Src/stm32f0xx_hal_rtc_ex.c **** /**
 391:Drivers/STM32F0xx_HAL_Driver/Src/stm32f0xx_hal_rtc_ex.c ****   * @brief  Sets Tamper with interrupt.
 392:Drivers/STM32F0xx_HAL_Driver/Src/stm32f0xx_hal_rtc_ex.c ****   * @note   By calling this API we force the tamper interrupt for all tampers.
 393:Drivers/STM32F0xx_HAL_Driver/Src/stm32f0xx_hal_rtc_ex.c ****   * @param  hrtc pointer to a RTC_HandleTypeDef structure that contains
 394:Drivers/STM32F0xx_HAL_Driver/Src/stm32f0xx_hal_rtc_ex.c ****   *                the configuration information for RTC.
 395:Drivers/STM32F0xx_HAL_Driver/Src/stm32f0xx_hal_rtc_ex.c ****   * @param  sTamper Pointer to RTC Tamper.
 396:Drivers/STM32F0xx_HAL_Driver/Src/stm32f0xx_hal_rtc_ex.c ****   * @retval HAL status
 397:Drivers/STM32F0xx_HAL_Driver/Src/stm32f0xx_hal_rtc_ex.c ****   */
 398:Drivers/STM32F0xx_HAL_Driver/Src/stm32f0xx_hal_rtc_ex.c **** HAL_StatusTypeDef HAL_RTCEx_SetTamper_IT(RTC_HandleTypeDef *hrtc, RTC_TamperTypeDef* sTamper)
 399:Drivers/STM32F0xx_HAL_Driver/Src/stm32f0xx_hal_rtc_ex.c **** {
 569              		.loc 1 399 0
ARM GAS  /tmp/cc3tXaRV.s 			page 18


 570              		.cfi_startproc
 571              		@ args = 0, pretend = 0, frame = 0
 572              		@ frame_needed = 0, uses_anonymous_args = 0
 573              	.LVL57:
 574 0000 30B5     		push	{r4, r5, lr}
 575              	.LCFI6:
 576              		.cfi_def_cfa_offset 12
 577              		.cfi_offset 4, -12
 578              		.cfi_offset 5, -8
 579              		.cfi_offset 14, -4
 580              	.LVL58:
 400:Drivers/STM32F0xx_HAL_Driver/Src/stm32f0xx_hal_rtc_ex.c ****   uint32_t tmpreg = 0U;
 401:Drivers/STM32F0xx_HAL_Driver/Src/stm32f0xx_hal_rtc_ex.c **** 
 402:Drivers/STM32F0xx_HAL_Driver/Src/stm32f0xx_hal_rtc_ex.c ****   /* Check the parameters */
 403:Drivers/STM32F0xx_HAL_Driver/Src/stm32f0xx_hal_rtc_ex.c ****   assert_param(IS_RTC_TAMPER(sTamper->Tamper)); 
 404:Drivers/STM32F0xx_HAL_Driver/Src/stm32f0xx_hal_rtc_ex.c ****   assert_param(IS_RTC_TAMPER_TRIGGER(sTamper->Trigger));
 405:Drivers/STM32F0xx_HAL_Driver/Src/stm32f0xx_hal_rtc_ex.c ****   assert_param(IS_RTC_TAMPER_FILTER(sTamper->Filter));
 406:Drivers/STM32F0xx_HAL_Driver/Src/stm32f0xx_hal_rtc_ex.c ****   assert_param(IS_RTC_TAMPER_SAMPLING_FREQ(sTamper->SamplingFrequency));
 407:Drivers/STM32F0xx_HAL_Driver/Src/stm32f0xx_hal_rtc_ex.c ****   assert_param(IS_RTC_TAMPER_PRECHARGE_DURATION(sTamper->PrechargeDuration));
 408:Drivers/STM32F0xx_HAL_Driver/Src/stm32f0xx_hal_rtc_ex.c ****   assert_param(IS_RTC_TAMPER_PULLUP_STATE(sTamper->TamperPullUp));
 409:Drivers/STM32F0xx_HAL_Driver/Src/stm32f0xx_hal_rtc_ex.c ****   assert_param(IS_RTC_TAMPER_TIMESTAMPONTAMPER_DETECTION(sTamper->TimeStampOnTamperDetection));
 410:Drivers/STM32F0xx_HAL_Driver/Src/stm32f0xx_hal_rtc_ex.c **** 
 411:Drivers/STM32F0xx_HAL_Driver/Src/stm32f0xx_hal_rtc_ex.c ****   /* Process Locked */
 412:Drivers/STM32F0xx_HAL_Driver/Src/stm32f0xx_hal_rtc_ex.c ****   __HAL_LOCK(hrtc);
 581              		.loc 1 412 0
 582 0002 037F     		ldrb	r3, [r0, #28]
 583 0004 012B     		cmp	r3, #1
 584 0006 36D0     		beq	.L30
 585              		.loc 1 412 0 is_stmt 0 discriminator 2
 586 0008 0123     		movs	r3, #1
 587 000a 0377     		strb	r3, [r0, #28]
 413:Drivers/STM32F0xx_HAL_Driver/Src/stm32f0xx_hal_rtc_ex.c **** 
 414:Drivers/STM32F0xx_HAL_Driver/Src/stm32f0xx_hal_rtc_ex.c ****   hrtc->State = HAL_RTC_STATE_BUSY;
 588              		.loc 1 414 0 is_stmt 1 discriminator 2
 589 000c 0133     		adds	r3, r3, #1
 590 000e 4377     		strb	r3, [r0, #29]
 415:Drivers/STM32F0xx_HAL_Driver/Src/stm32f0xx_hal_rtc_ex.c **** 
 416:Drivers/STM32F0xx_HAL_Driver/Src/stm32f0xx_hal_rtc_ex.c ****   /* Configure the tamper trigger */
 417:Drivers/STM32F0xx_HAL_Driver/Src/stm32f0xx_hal_rtc_ex.c ****   if(sTamper->Trigger != RTC_TAMPERTRIGGER_RISINGEDGE)
 591              		.loc 1 417 0 discriminator 2
 592 0010 4B68     		ldr	r3, [r1, #4]
 593 0012 002B     		cmp	r3, #0
 594 0014 02D0     		beq	.L29
 418:Drivers/STM32F0xx_HAL_Driver/Src/stm32f0xx_hal_rtc_ex.c ****   {
 419:Drivers/STM32F0xx_HAL_Driver/Src/stm32f0xx_hal_rtc_ex.c ****     sTamper->Trigger = (uint32_t)(sTamper->Tamper << 1U);
 595              		.loc 1 419 0
 596 0016 0B68     		ldr	r3, [r1]
 597 0018 5B00     		lsls	r3, r3, #1
 598 001a 4B60     		str	r3, [r1, #4]
 599              	.L29:
 420:Drivers/STM32F0xx_HAL_Driver/Src/stm32f0xx_hal_rtc_ex.c ****   }
 421:Drivers/STM32F0xx_HAL_Driver/Src/stm32f0xx_hal_rtc_ex.c **** 
 422:Drivers/STM32F0xx_HAL_Driver/Src/stm32f0xx_hal_rtc_ex.c ****   tmpreg = ((uint32_t)sTamper->Tamper | (uint32_t)sTamper->Trigger | (uint32_t)sTamper->Filter |\
 600              		.loc 1 422 0
 601 001c 0A68     		ldr	r2, [r1]
 602 001e 4B68     		ldr	r3, [r1, #4]
 603 0020 1343     		orrs	r3, r2
ARM GAS  /tmp/cc3tXaRV.s 			page 19


 604 0022 8C68     		ldr	r4, [r1, #8]
 605 0024 2343     		orrs	r3, r4
 606 0026 CC68     		ldr	r4, [r1, #12]
 607 0028 2343     		orrs	r3, r4
 423:Drivers/STM32F0xx_HAL_Driver/Src/stm32f0xx_hal_rtc_ex.c ****             (uint32_t)sTamper->SamplingFrequency | (uint32_t)sTamper->PrechargeDuration |\
 608              		.loc 1 423 0
 609 002a 0C69     		ldr	r4, [r1, #16]
 610 002c 2343     		orrs	r3, r4
 611 002e 4C69     		ldr	r4, [r1, #20]
 612 0030 2343     		orrs	r3, r4
 424:Drivers/STM32F0xx_HAL_Driver/Src/stm32f0xx_hal_rtc_ex.c ****             (uint32_t)sTamper->TamperPullUp | sTamper->TimeStampOnTamperDetection);
 613              		.loc 1 424 0
 614 0032 8969     		ldr	r1, [r1, #24]
 615              	.LVL59:
 422:Drivers/STM32F0xx_HAL_Driver/Src/stm32f0xx_hal_rtc_ex.c ****             (uint32_t)sTamper->SamplingFrequency | (uint32_t)sTamper->PrechargeDuration |\
 616              		.loc 1 422 0
 617 0034 0B43     		orrs	r3, r1
 618              	.LVL60:
 425:Drivers/STM32F0xx_HAL_Driver/Src/stm32f0xx_hal_rtc_ex.c **** 
 426:Drivers/STM32F0xx_HAL_Driver/Src/stm32f0xx_hal_rtc_ex.c ****   hrtc->Instance->TAFCR &= (uint32_t)~((uint32_t)sTamper->Tamper | (uint32_t)(sTamper->Tamper << 1U
 619              		.loc 1 426 0
 620 0036 0568     		ldr	r5, [r0]
 621 0038 296C     		ldr	r1, [r5, #64]
 622 003a 5400     		lsls	r4, r2, #1
 623 003c 2243     		orrs	r2, r4
 427:Drivers/STM32F0xx_HAL_Driver/Src/stm32f0xx_hal_rtc_ex.c ****                                        (uint32_t)RTC_TAFCR_TAMPFREQ | (uint32_t)RTC_TAFCR_TAMPFLT |
 624              		.loc 1 427 0
 625 003e 0F4C     		ldr	r4, .L31
 626 0040 2243     		orrs	r2, r4
 426:Drivers/STM32F0xx_HAL_Driver/Src/stm32f0xx_hal_rtc_ex.c ****                                        (uint32_t)RTC_TAFCR_TAMPFREQ | (uint32_t)RTC_TAFCR_TAMPFLT |
 627              		.loc 1 426 0
 628 0042 9143     		bics	r1, r2
 629 0044 2964     		str	r1, [r5, #64]
 428:Drivers/STM32F0xx_HAL_Driver/Src/stm32f0xx_hal_rtc_ex.c ****                                        (uint32_t)RTC_TAFCR_TAMPPUDIS);
 429:Drivers/STM32F0xx_HAL_Driver/Src/stm32f0xx_hal_rtc_ex.c **** 
 430:Drivers/STM32F0xx_HAL_Driver/Src/stm32f0xx_hal_rtc_ex.c ****   hrtc->Instance->TAFCR |= tmpreg;
 630              		.loc 1 430 0
 631 0046 0268     		ldr	r2, [r0]
 632 0048 116C     		ldr	r1, [r2, #64]
 633 004a 0B43     		orrs	r3, r1
 634              	.LVL61:
 635 004c 1364     		str	r3, [r2, #64]
 431:Drivers/STM32F0xx_HAL_Driver/Src/stm32f0xx_hal_rtc_ex.c **** 
 432:Drivers/STM32F0xx_HAL_Driver/Src/stm32f0xx_hal_rtc_ex.c ****   /* Configure the Tamper Interrupt in the RTC_TAFCR */
 433:Drivers/STM32F0xx_HAL_Driver/Src/stm32f0xx_hal_rtc_ex.c ****   hrtc->Instance->TAFCR |= (uint32_t)RTC_TAFCR_TAMPIE;
 636              		.loc 1 433 0
 637 004e 0268     		ldr	r2, [r0]
 638 0050 136C     		ldr	r3, [r2, #64]
 639 0052 0421     		movs	r1, #4
 640 0054 0B43     		orrs	r3, r1
 641 0056 1364     		str	r3, [r2, #64]
 434:Drivers/STM32F0xx_HAL_Driver/Src/stm32f0xx_hal_rtc_ex.c **** 
 435:Drivers/STM32F0xx_HAL_Driver/Src/stm32f0xx_hal_rtc_ex.c ****   /* RTC Tamper Interrupt Configuration: EXTI configuration */
 436:Drivers/STM32F0xx_HAL_Driver/Src/stm32f0xx_hal_rtc_ex.c ****   __HAL_RTC_TAMPER_TIMESTAMP_EXTI_ENABLE_IT();
 642              		.loc 1 436 0
 643 0058 094B     		ldr	r3, .L31+4
 644 005a 1968     		ldr	r1, [r3]
ARM GAS  /tmp/cc3tXaRV.s 			page 20


 645 005c 8022     		movs	r2, #128
 646 005e 1203     		lsls	r2, r2, #12
 647 0060 1143     		orrs	r1, r2
 648 0062 1960     		str	r1, [r3]
 437:Drivers/STM32F0xx_HAL_Driver/Src/stm32f0xx_hal_rtc_ex.c ****   
 438:Drivers/STM32F0xx_HAL_Driver/Src/stm32f0xx_hal_rtc_ex.c ****   __HAL_RTC_TAMPER_TIMESTAMP_EXTI_ENABLE_RISING_EDGE();
 649              		.loc 1 438 0
 650 0064 9968     		ldr	r1, [r3, #8]
 651 0066 0A43     		orrs	r2, r1
 652 0068 9A60     		str	r2, [r3, #8]
 439:Drivers/STM32F0xx_HAL_Driver/Src/stm32f0xx_hal_rtc_ex.c **** 
 440:Drivers/STM32F0xx_HAL_Driver/Src/stm32f0xx_hal_rtc_ex.c ****   hrtc->State = HAL_RTC_STATE_READY;
 653              		.loc 1 440 0
 654 006a 0123     		movs	r3, #1
 655 006c 4377     		strb	r3, [r0, #29]
 441:Drivers/STM32F0xx_HAL_Driver/Src/stm32f0xx_hal_rtc_ex.c **** 
 442:Drivers/STM32F0xx_HAL_Driver/Src/stm32f0xx_hal_rtc_ex.c ****   /* Process Unlocked */
 443:Drivers/STM32F0xx_HAL_Driver/Src/stm32f0xx_hal_rtc_ex.c ****   __HAL_UNLOCK(hrtc);
 656              		.loc 1 443 0
 657 006e 0023     		movs	r3, #0
 658 0070 0377     		strb	r3, [r0, #28]
 444:Drivers/STM32F0xx_HAL_Driver/Src/stm32f0xx_hal_rtc_ex.c **** 
 445:Drivers/STM32F0xx_HAL_Driver/Src/stm32f0xx_hal_rtc_ex.c ****   return HAL_OK;
 659              		.loc 1 445 0
 660 0072 0020     		movs	r0, #0
 661              	.LVL62:
 662              	.L28:
 446:Drivers/STM32F0xx_HAL_Driver/Src/stm32f0xx_hal_rtc_ex.c **** }
 663              		.loc 1 446 0
 664              		@ sp needed
 665 0074 30BD     		pop	{r4, r5, pc}
 666              	.LVL63:
 667              	.L30:
 412:Drivers/STM32F0xx_HAL_Driver/Src/stm32f0xx_hal_rtc_ex.c **** 
 668              		.loc 1 412 0
 669 0076 0220     		movs	r0, #2
 670              	.LVL64:
 671 0078 FCE7     		b	.L28
 672              	.L32:
 673 007a C046     		.align	2
 674              	.L31:
 675 007c 80FF0000 		.word	65408
 676 0080 00040140 		.word	1073808384
 677              		.cfi_endproc
 678              	.LFE40:
 680              		.section	.text.HAL_RTCEx_DeactivateTamper,"ax",%progbits
 681              		.align	1
 682              		.global	HAL_RTCEx_DeactivateTamper
 683              		.syntax unified
 684              		.code	16
 685              		.thumb_func
 686              		.fpu softvfp
 688              	HAL_RTCEx_DeactivateTamper:
 689              	.LFB41:
 447:Drivers/STM32F0xx_HAL_Driver/Src/stm32f0xx_hal_rtc_ex.c **** 
 448:Drivers/STM32F0xx_HAL_Driver/Src/stm32f0xx_hal_rtc_ex.c **** /**
 449:Drivers/STM32F0xx_HAL_Driver/Src/stm32f0xx_hal_rtc_ex.c ****   * @brief  Deactivate Tamper.
ARM GAS  /tmp/cc3tXaRV.s 			page 21


 450:Drivers/STM32F0xx_HAL_Driver/Src/stm32f0xx_hal_rtc_ex.c ****   * @param  hrtc RTC handle
 451:Drivers/STM32F0xx_HAL_Driver/Src/stm32f0xx_hal_rtc_ex.c ****   * @param  Tamper Selected tamper pin.
 452:Drivers/STM32F0xx_HAL_Driver/Src/stm32f0xx_hal_rtc_ex.c ****   *          This parameter can be any combination of RTC_TAMPER_1, RTC_TAMPER_2 and RTC_TAMPER_3.
 453:Drivers/STM32F0xx_HAL_Driver/Src/stm32f0xx_hal_rtc_ex.c ****   * @retval HAL status
 454:Drivers/STM32F0xx_HAL_Driver/Src/stm32f0xx_hal_rtc_ex.c ****   */
 455:Drivers/STM32F0xx_HAL_Driver/Src/stm32f0xx_hal_rtc_ex.c **** HAL_StatusTypeDef HAL_RTCEx_DeactivateTamper(RTC_HandleTypeDef *hrtc, uint32_t Tamper)
 456:Drivers/STM32F0xx_HAL_Driver/Src/stm32f0xx_hal_rtc_ex.c **** {
 690              		.loc 1 456 0
 691              		.cfi_startproc
 692              		@ args = 0, pretend = 0, frame = 0
 693              		@ frame_needed = 0, uses_anonymous_args = 0
 694              	.LVL65:
 695 0000 10B5     		push	{r4, lr}
 696              	.LCFI7:
 697              		.cfi_def_cfa_offset 8
 698              		.cfi_offset 4, -8
 699              		.cfi_offset 14, -4
 457:Drivers/STM32F0xx_HAL_Driver/Src/stm32f0xx_hal_rtc_ex.c ****   assert_param(IS_RTC_TAMPER(Tamper));
 458:Drivers/STM32F0xx_HAL_Driver/Src/stm32f0xx_hal_rtc_ex.c **** 
 459:Drivers/STM32F0xx_HAL_Driver/Src/stm32f0xx_hal_rtc_ex.c ****   /* Process Locked */
 460:Drivers/STM32F0xx_HAL_Driver/Src/stm32f0xx_hal_rtc_ex.c ****   __HAL_LOCK(hrtc);
 700              		.loc 1 460 0
 701 0002 037F     		ldrb	r3, [r0, #28]
 702 0004 012B     		cmp	r3, #1
 703 0006 0CD0     		beq	.L35
 704              		.loc 1 460 0 is_stmt 0 discriminator 2
 705 0008 0122     		movs	r2, #1
 706 000a 0277     		strb	r2, [r0, #28]
 461:Drivers/STM32F0xx_HAL_Driver/Src/stm32f0xx_hal_rtc_ex.c **** 
 462:Drivers/STM32F0xx_HAL_Driver/Src/stm32f0xx_hal_rtc_ex.c ****   hrtc->State = HAL_RTC_STATE_BUSY;
 707              		.loc 1 462 0 is_stmt 1 discriminator 2
 708 000c 0223     		movs	r3, #2
 709 000e 4377     		strb	r3, [r0, #29]
 463:Drivers/STM32F0xx_HAL_Driver/Src/stm32f0xx_hal_rtc_ex.c **** 
 464:Drivers/STM32F0xx_HAL_Driver/Src/stm32f0xx_hal_rtc_ex.c ****   /* Disable the selected Tamper pin */
 465:Drivers/STM32F0xx_HAL_Driver/Src/stm32f0xx_hal_rtc_ex.c ****   hrtc->Instance->TAFCR &= (uint32_t)~Tamper;
 710              		.loc 1 465 0 discriminator 2
 711 0010 0468     		ldr	r4, [r0]
 712 0012 236C     		ldr	r3, [r4, #64]
 713 0014 8B43     		bics	r3, r1
 714 0016 2364     		str	r3, [r4, #64]
 466:Drivers/STM32F0xx_HAL_Driver/Src/stm32f0xx_hal_rtc_ex.c **** 
 467:Drivers/STM32F0xx_HAL_Driver/Src/stm32f0xx_hal_rtc_ex.c ****   hrtc->State = HAL_RTC_STATE_READY;
 715              		.loc 1 467 0 discriminator 2
 716 0018 4277     		strb	r2, [r0, #29]
 468:Drivers/STM32F0xx_HAL_Driver/Src/stm32f0xx_hal_rtc_ex.c **** 
 469:Drivers/STM32F0xx_HAL_Driver/Src/stm32f0xx_hal_rtc_ex.c ****   /* Process Unlocked */
 470:Drivers/STM32F0xx_HAL_Driver/Src/stm32f0xx_hal_rtc_ex.c ****   __HAL_UNLOCK(hrtc);
 717              		.loc 1 470 0 discriminator 2
 718 001a 0023     		movs	r3, #0
 719 001c 0377     		strb	r3, [r0, #28]
 471:Drivers/STM32F0xx_HAL_Driver/Src/stm32f0xx_hal_rtc_ex.c **** 
 472:Drivers/STM32F0xx_HAL_Driver/Src/stm32f0xx_hal_rtc_ex.c ****   return HAL_OK;
 720              		.loc 1 472 0 discriminator 2
 721 001e 0020     		movs	r0, #0
 722              	.LVL66:
 723              	.L34:
ARM GAS  /tmp/cc3tXaRV.s 			page 22


 473:Drivers/STM32F0xx_HAL_Driver/Src/stm32f0xx_hal_rtc_ex.c **** }
 724              		.loc 1 473 0
 725              		@ sp needed
 726 0020 10BD     		pop	{r4, pc}
 727              	.LVL67:
 728              	.L35:
 460:Drivers/STM32F0xx_HAL_Driver/Src/stm32f0xx_hal_rtc_ex.c **** 
 729              		.loc 1 460 0
 730 0022 0220     		movs	r0, #2
 731              	.LVL68:
 732 0024 FCE7     		b	.L34
 733              		.cfi_endproc
 734              	.LFE41:
 736              		.section	.text.HAL_RTCEx_TimeStampEventCallback,"ax",%progbits
 737              		.align	1
 738              		.weak	HAL_RTCEx_TimeStampEventCallback
 739              		.syntax unified
 740              		.code	16
 741              		.thumb_func
 742              		.fpu softvfp
 744              	HAL_RTCEx_TimeStampEventCallback:
 745              	.LFB43:
 474:Drivers/STM32F0xx_HAL_Driver/Src/stm32f0xx_hal_rtc_ex.c **** 
 475:Drivers/STM32F0xx_HAL_Driver/Src/stm32f0xx_hal_rtc_ex.c **** /**
 476:Drivers/STM32F0xx_HAL_Driver/Src/stm32f0xx_hal_rtc_ex.c ****   * @brief  Handle TimeStamp interrupt request.
 477:Drivers/STM32F0xx_HAL_Driver/Src/stm32f0xx_hal_rtc_ex.c ****   * @param  hrtc RTC handle
 478:Drivers/STM32F0xx_HAL_Driver/Src/stm32f0xx_hal_rtc_ex.c ****   * @retval None
 479:Drivers/STM32F0xx_HAL_Driver/Src/stm32f0xx_hal_rtc_ex.c ****   */
 480:Drivers/STM32F0xx_HAL_Driver/Src/stm32f0xx_hal_rtc_ex.c **** void HAL_RTCEx_TamperTimeStampIRQHandler(RTC_HandleTypeDef *hrtc)
 481:Drivers/STM32F0xx_HAL_Driver/Src/stm32f0xx_hal_rtc_ex.c **** {  
 482:Drivers/STM32F0xx_HAL_Driver/Src/stm32f0xx_hal_rtc_ex.c ****   /* Get the TimeStamp interrupt source enable status */
 483:Drivers/STM32F0xx_HAL_Driver/Src/stm32f0xx_hal_rtc_ex.c ****   if(__HAL_RTC_TIMESTAMP_GET_IT_SOURCE(hrtc, RTC_IT_TS) != RESET)
 484:Drivers/STM32F0xx_HAL_Driver/Src/stm32f0xx_hal_rtc_ex.c ****   {
 485:Drivers/STM32F0xx_HAL_Driver/Src/stm32f0xx_hal_rtc_ex.c ****     /* Get the pending status of the TIMESTAMP Interrupt */
 486:Drivers/STM32F0xx_HAL_Driver/Src/stm32f0xx_hal_rtc_ex.c ****     if(__HAL_RTC_TIMESTAMP_GET_FLAG(hrtc, RTC_FLAG_TSF) != RESET)
 487:Drivers/STM32F0xx_HAL_Driver/Src/stm32f0xx_hal_rtc_ex.c ****     {
 488:Drivers/STM32F0xx_HAL_Driver/Src/stm32f0xx_hal_rtc_ex.c ****       /* TIMESTAMP callback */ 
 489:Drivers/STM32F0xx_HAL_Driver/Src/stm32f0xx_hal_rtc_ex.c ****       HAL_RTCEx_TimeStampEventCallback(hrtc);
 490:Drivers/STM32F0xx_HAL_Driver/Src/stm32f0xx_hal_rtc_ex.c ****       
 491:Drivers/STM32F0xx_HAL_Driver/Src/stm32f0xx_hal_rtc_ex.c ****       /* Clear the TIMESTAMP interrupt pending bit */
 492:Drivers/STM32F0xx_HAL_Driver/Src/stm32f0xx_hal_rtc_ex.c ****       __HAL_RTC_TIMESTAMP_CLEAR_FLAG(hrtc, RTC_FLAG_TSF);
 493:Drivers/STM32F0xx_HAL_Driver/Src/stm32f0xx_hal_rtc_ex.c ****     }
 494:Drivers/STM32F0xx_HAL_Driver/Src/stm32f0xx_hal_rtc_ex.c ****   }
 495:Drivers/STM32F0xx_HAL_Driver/Src/stm32f0xx_hal_rtc_ex.c **** 
 496:Drivers/STM32F0xx_HAL_Driver/Src/stm32f0xx_hal_rtc_ex.c ****   /* Get the Tamper interrupts source enable status */
 497:Drivers/STM32F0xx_HAL_Driver/Src/stm32f0xx_hal_rtc_ex.c ****   if(__HAL_RTC_TAMPER_GET_IT_SOURCE(hrtc, RTC_IT_TAMP))
 498:Drivers/STM32F0xx_HAL_Driver/Src/stm32f0xx_hal_rtc_ex.c ****   {
 499:Drivers/STM32F0xx_HAL_Driver/Src/stm32f0xx_hal_rtc_ex.c ****    /* Get the pending status of the Tamper1 Interrupt */
 500:Drivers/STM32F0xx_HAL_Driver/Src/stm32f0xx_hal_rtc_ex.c ****     if(__HAL_RTC_TAMPER_GET_FLAG(hrtc, RTC_FLAG_TAMP1F) != RESET)
 501:Drivers/STM32F0xx_HAL_Driver/Src/stm32f0xx_hal_rtc_ex.c ****     {
 502:Drivers/STM32F0xx_HAL_Driver/Src/stm32f0xx_hal_rtc_ex.c ****       /* Tamper1 callback */
 503:Drivers/STM32F0xx_HAL_Driver/Src/stm32f0xx_hal_rtc_ex.c ****       HAL_RTCEx_Tamper1EventCallback(hrtc);
 504:Drivers/STM32F0xx_HAL_Driver/Src/stm32f0xx_hal_rtc_ex.c **** 
 505:Drivers/STM32F0xx_HAL_Driver/Src/stm32f0xx_hal_rtc_ex.c ****       /* Clear the Tamper1 interrupt pending bit */
 506:Drivers/STM32F0xx_HAL_Driver/Src/stm32f0xx_hal_rtc_ex.c ****       __HAL_RTC_TAMPER_CLEAR_FLAG(hrtc, RTC_FLAG_TAMP1F);
 507:Drivers/STM32F0xx_HAL_Driver/Src/stm32f0xx_hal_rtc_ex.c ****     }
 508:Drivers/STM32F0xx_HAL_Driver/Src/stm32f0xx_hal_rtc_ex.c ****   }
ARM GAS  /tmp/cc3tXaRV.s 			page 23


 509:Drivers/STM32F0xx_HAL_Driver/Src/stm32f0xx_hal_rtc_ex.c **** 
 510:Drivers/STM32F0xx_HAL_Driver/Src/stm32f0xx_hal_rtc_ex.c ****   /* Get the Tamper interrupts source enable status */
 511:Drivers/STM32F0xx_HAL_Driver/Src/stm32f0xx_hal_rtc_ex.c ****   if(__HAL_RTC_TAMPER_GET_IT_SOURCE(hrtc, RTC_IT_TAMP))
 512:Drivers/STM32F0xx_HAL_Driver/Src/stm32f0xx_hal_rtc_ex.c ****   {
 513:Drivers/STM32F0xx_HAL_Driver/Src/stm32f0xx_hal_rtc_ex.c ****    /* Get the pending status of the Tamper2 Interrupt */
 514:Drivers/STM32F0xx_HAL_Driver/Src/stm32f0xx_hal_rtc_ex.c ****     if(__HAL_RTC_TAMPER_GET_FLAG(hrtc, RTC_FLAG_TAMP2F) != RESET)
 515:Drivers/STM32F0xx_HAL_Driver/Src/stm32f0xx_hal_rtc_ex.c ****     {
 516:Drivers/STM32F0xx_HAL_Driver/Src/stm32f0xx_hal_rtc_ex.c ****       /* Tamper2 callback */
 517:Drivers/STM32F0xx_HAL_Driver/Src/stm32f0xx_hal_rtc_ex.c ****       HAL_RTCEx_Tamper2EventCallback(hrtc);
 518:Drivers/STM32F0xx_HAL_Driver/Src/stm32f0xx_hal_rtc_ex.c **** 
 519:Drivers/STM32F0xx_HAL_Driver/Src/stm32f0xx_hal_rtc_ex.c ****       /* Clear the Tamper2 interrupt pending bit */
 520:Drivers/STM32F0xx_HAL_Driver/Src/stm32f0xx_hal_rtc_ex.c ****       __HAL_RTC_TAMPER_CLEAR_FLAG(hrtc, RTC_FLAG_TAMP2F);
 521:Drivers/STM32F0xx_HAL_Driver/Src/stm32f0xx_hal_rtc_ex.c ****     }
 522:Drivers/STM32F0xx_HAL_Driver/Src/stm32f0xx_hal_rtc_ex.c ****   }
 523:Drivers/STM32F0xx_HAL_Driver/Src/stm32f0xx_hal_rtc_ex.c **** 
 524:Drivers/STM32F0xx_HAL_Driver/Src/stm32f0xx_hal_rtc_ex.c **** #if defined(STM32F071xB) || defined(STM32F072xB) || defined(STM32F078xx) || defined(STM32F091xC) ||
 525:Drivers/STM32F0xx_HAL_Driver/Src/stm32f0xx_hal_rtc_ex.c ****   /* Get the Tamper interrupts source enable status */
 526:Drivers/STM32F0xx_HAL_Driver/Src/stm32f0xx_hal_rtc_ex.c ****   if(__HAL_RTC_TAMPER_GET_IT_SOURCE(hrtc, RTC_IT_TAMP))
 527:Drivers/STM32F0xx_HAL_Driver/Src/stm32f0xx_hal_rtc_ex.c ****   {
 528:Drivers/STM32F0xx_HAL_Driver/Src/stm32f0xx_hal_rtc_ex.c ****    /* Get the pending status of the Tamper3 Interrupt */
 529:Drivers/STM32F0xx_HAL_Driver/Src/stm32f0xx_hal_rtc_ex.c ****     if(__HAL_RTC_TAMPER_GET_FLAG(hrtc, RTC_FLAG_TAMP3F) != RESET)
 530:Drivers/STM32F0xx_HAL_Driver/Src/stm32f0xx_hal_rtc_ex.c ****     {
 531:Drivers/STM32F0xx_HAL_Driver/Src/stm32f0xx_hal_rtc_ex.c ****       /* Tamper3 callback */
 532:Drivers/STM32F0xx_HAL_Driver/Src/stm32f0xx_hal_rtc_ex.c ****       HAL_RTCEx_Tamper3EventCallback(hrtc);
 533:Drivers/STM32F0xx_HAL_Driver/Src/stm32f0xx_hal_rtc_ex.c **** 
 534:Drivers/STM32F0xx_HAL_Driver/Src/stm32f0xx_hal_rtc_ex.c ****       /* Clear the Tamper3 interrupt pending bit */
 535:Drivers/STM32F0xx_HAL_Driver/Src/stm32f0xx_hal_rtc_ex.c ****       __HAL_RTC_TAMPER_CLEAR_FLAG(hrtc, RTC_FLAG_TAMP3F);
 536:Drivers/STM32F0xx_HAL_Driver/Src/stm32f0xx_hal_rtc_ex.c ****     }
 537:Drivers/STM32F0xx_HAL_Driver/Src/stm32f0xx_hal_rtc_ex.c ****   }
 538:Drivers/STM32F0xx_HAL_Driver/Src/stm32f0xx_hal_rtc_ex.c **** #endif
 539:Drivers/STM32F0xx_HAL_Driver/Src/stm32f0xx_hal_rtc_ex.c **** 
 540:Drivers/STM32F0xx_HAL_Driver/Src/stm32f0xx_hal_rtc_ex.c ****   /* Clear the EXTI's Flag for RTC TimeStamp and Tamper */
 541:Drivers/STM32F0xx_HAL_Driver/Src/stm32f0xx_hal_rtc_ex.c ****   __HAL_RTC_TAMPER_TIMESTAMP_EXTI_CLEAR_FLAG();
 542:Drivers/STM32F0xx_HAL_Driver/Src/stm32f0xx_hal_rtc_ex.c **** 
 543:Drivers/STM32F0xx_HAL_Driver/Src/stm32f0xx_hal_rtc_ex.c ****   /* Change RTC state */
 544:Drivers/STM32F0xx_HAL_Driver/Src/stm32f0xx_hal_rtc_ex.c ****   hrtc->State = HAL_RTC_STATE_READY;
 545:Drivers/STM32F0xx_HAL_Driver/Src/stm32f0xx_hal_rtc_ex.c **** }
 546:Drivers/STM32F0xx_HAL_Driver/Src/stm32f0xx_hal_rtc_ex.c **** 
 547:Drivers/STM32F0xx_HAL_Driver/Src/stm32f0xx_hal_rtc_ex.c **** /**
 548:Drivers/STM32F0xx_HAL_Driver/Src/stm32f0xx_hal_rtc_ex.c ****   * @brief  TimeStamp callback. 
 549:Drivers/STM32F0xx_HAL_Driver/Src/stm32f0xx_hal_rtc_ex.c ****   * @param  hrtc RTC handle
 550:Drivers/STM32F0xx_HAL_Driver/Src/stm32f0xx_hal_rtc_ex.c ****   * @retval None
 551:Drivers/STM32F0xx_HAL_Driver/Src/stm32f0xx_hal_rtc_ex.c ****   */
 552:Drivers/STM32F0xx_HAL_Driver/Src/stm32f0xx_hal_rtc_ex.c **** __weak void HAL_RTCEx_TimeStampEventCallback(RTC_HandleTypeDef *hrtc)
 553:Drivers/STM32F0xx_HAL_Driver/Src/stm32f0xx_hal_rtc_ex.c **** {
 746              		.loc 1 553 0
 747              		.cfi_startproc
 748              		@ args = 0, pretend = 0, frame = 0
 749              		@ frame_needed = 0, uses_anonymous_args = 0
 750              		@ link register save eliminated.
 751              	.LVL69:
 554:Drivers/STM32F0xx_HAL_Driver/Src/stm32f0xx_hal_rtc_ex.c ****   /* Prevent unused argument(s) compilation warning */
 555:Drivers/STM32F0xx_HAL_Driver/Src/stm32f0xx_hal_rtc_ex.c ****   UNUSED(hrtc);
 556:Drivers/STM32F0xx_HAL_Driver/Src/stm32f0xx_hal_rtc_ex.c **** 
 557:Drivers/STM32F0xx_HAL_Driver/Src/stm32f0xx_hal_rtc_ex.c ****   /* NOTE : This function should not be modified, when the callback is needed,
 558:Drivers/STM32F0xx_HAL_Driver/Src/stm32f0xx_hal_rtc_ex.c ****             the HAL_RTCEx_TimeStampEventCallback could be implemented in the user file
 559:Drivers/STM32F0xx_HAL_Driver/Src/stm32f0xx_hal_rtc_ex.c ****   */
ARM GAS  /tmp/cc3tXaRV.s 			page 24


 560:Drivers/STM32F0xx_HAL_Driver/Src/stm32f0xx_hal_rtc_ex.c **** }
 752              		.loc 1 560 0
 753              		@ sp needed
 754 0000 7047     		bx	lr
 755              		.cfi_endproc
 756              	.LFE43:
 758              		.section	.text.HAL_RTCEx_Tamper1EventCallback,"ax",%progbits
 759              		.align	1
 760              		.weak	HAL_RTCEx_Tamper1EventCallback
 761              		.syntax unified
 762              		.code	16
 763              		.thumb_func
 764              		.fpu softvfp
 766              	HAL_RTCEx_Tamper1EventCallback:
 767              	.LFB44:
 561:Drivers/STM32F0xx_HAL_Driver/Src/stm32f0xx_hal_rtc_ex.c **** 
 562:Drivers/STM32F0xx_HAL_Driver/Src/stm32f0xx_hal_rtc_ex.c **** /**
 563:Drivers/STM32F0xx_HAL_Driver/Src/stm32f0xx_hal_rtc_ex.c ****   * @brief  Tamper 1 callback.
 564:Drivers/STM32F0xx_HAL_Driver/Src/stm32f0xx_hal_rtc_ex.c ****   * @param  hrtc RTC handle
 565:Drivers/STM32F0xx_HAL_Driver/Src/stm32f0xx_hal_rtc_ex.c ****   * @retval None
 566:Drivers/STM32F0xx_HAL_Driver/Src/stm32f0xx_hal_rtc_ex.c ****   */
 567:Drivers/STM32F0xx_HAL_Driver/Src/stm32f0xx_hal_rtc_ex.c **** __weak void HAL_RTCEx_Tamper1EventCallback(RTC_HandleTypeDef *hrtc)
 568:Drivers/STM32F0xx_HAL_Driver/Src/stm32f0xx_hal_rtc_ex.c **** {
 768              		.loc 1 568 0
 769              		.cfi_startproc
 770              		@ args = 0, pretend = 0, frame = 0
 771              		@ frame_needed = 0, uses_anonymous_args = 0
 772              		@ link register save eliminated.
 773              	.LVL70:
 569:Drivers/STM32F0xx_HAL_Driver/Src/stm32f0xx_hal_rtc_ex.c ****   /* Prevent unused argument(s) compilation warning */
 570:Drivers/STM32F0xx_HAL_Driver/Src/stm32f0xx_hal_rtc_ex.c ****   UNUSED(hrtc);
 571:Drivers/STM32F0xx_HAL_Driver/Src/stm32f0xx_hal_rtc_ex.c **** 
 572:Drivers/STM32F0xx_HAL_Driver/Src/stm32f0xx_hal_rtc_ex.c ****   /* NOTE : This function should not be modified, when the callback is needed,
 573:Drivers/STM32F0xx_HAL_Driver/Src/stm32f0xx_hal_rtc_ex.c ****             the HAL_RTCEx_Tamper1EventCallback could be implemented in the user file
 574:Drivers/STM32F0xx_HAL_Driver/Src/stm32f0xx_hal_rtc_ex.c ****    */
 575:Drivers/STM32F0xx_HAL_Driver/Src/stm32f0xx_hal_rtc_ex.c **** }
 774              		.loc 1 575 0
 775              		@ sp needed
 776 0000 7047     		bx	lr
 777              		.cfi_endproc
 778              	.LFE44:
 780              		.section	.text.HAL_RTCEx_Tamper2EventCallback,"ax",%progbits
 781              		.align	1
 782              		.weak	HAL_RTCEx_Tamper2EventCallback
 783              		.syntax unified
 784              		.code	16
 785              		.thumb_func
 786              		.fpu softvfp
 788              	HAL_RTCEx_Tamper2EventCallback:
 789              	.LFB45:
 576:Drivers/STM32F0xx_HAL_Driver/Src/stm32f0xx_hal_rtc_ex.c **** 
 577:Drivers/STM32F0xx_HAL_Driver/Src/stm32f0xx_hal_rtc_ex.c **** /**
 578:Drivers/STM32F0xx_HAL_Driver/Src/stm32f0xx_hal_rtc_ex.c ****   * @brief  Tamper 2 callback. 
 579:Drivers/STM32F0xx_HAL_Driver/Src/stm32f0xx_hal_rtc_ex.c ****   * @param  hrtc RTC handle
 580:Drivers/STM32F0xx_HAL_Driver/Src/stm32f0xx_hal_rtc_ex.c ****   * @retval None
 581:Drivers/STM32F0xx_HAL_Driver/Src/stm32f0xx_hal_rtc_ex.c ****   */
 582:Drivers/STM32F0xx_HAL_Driver/Src/stm32f0xx_hal_rtc_ex.c **** __weak void HAL_RTCEx_Tamper2EventCallback(RTC_HandleTypeDef *hrtc)
ARM GAS  /tmp/cc3tXaRV.s 			page 25


 583:Drivers/STM32F0xx_HAL_Driver/Src/stm32f0xx_hal_rtc_ex.c **** {
 790              		.loc 1 583 0
 791              		.cfi_startproc
 792              		@ args = 0, pretend = 0, frame = 0
 793              		@ frame_needed = 0, uses_anonymous_args = 0
 794              		@ link register save eliminated.
 795              	.LVL71:
 584:Drivers/STM32F0xx_HAL_Driver/Src/stm32f0xx_hal_rtc_ex.c ****   /* Prevent unused argument(s) compilation warning */
 585:Drivers/STM32F0xx_HAL_Driver/Src/stm32f0xx_hal_rtc_ex.c ****   UNUSED(hrtc);
 586:Drivers/STM32F0xx_HAL_Driver/Src/stm32f0xx_hal_rtc_ex.c **** 
 587:Drivers/STM32F0xx_HAL_Driver/Src/stm32f0xx_hal_rtc_ex.c ****   /* NOTE : This function should not be modified, when the callback is needed,
 588:Drivers/STM32F0xx_HAL_Driver/Src/stm32f0xx_hal_rtc_ex.c ****             the HAL_RTCEx_Tamper2EventCallback could be implemented in the user file
 589:Drivers/STM32F0xx_HAL_Driver/Src/stm32f0xx_hal_rtc_ex.c ****    */
 590:Drivers/STM32F0xx_HAL_Driver/Src/stm32f0xx_hal_rtc_ex.c **** }
 796              		.loc 1 590 0
 797              		@ sp needed
 798 0000 7047     		bx	lr
 799              		.cfi_endproc
 800              	.LFE45:
 802              		.section	.text.HAL_RTCEx_TamperTimeStampIRQHandler,"ax",%progbits
 803              		.align	1
 804              		.global	HAL_RTCEx_TamperTimeStampIRQHandler
 805              		.syntax unified
 806              		.code	16
 807              		.thumb_func
 808              		.fpu softvfp
 810              	HAL_RTCEx_TamperTimeStampIRQHandler:
 811              	.LFB42:
 481:Drivers/STM32F0xx_HAL_Driver/Src/stm32f0xx_hal_rtc_ex.c ****   /* Get the TimeStamp interrupt source enable status */
 812              		.loc 1 481 0
 813              		.cfi_startproc
 814              		@ args = 0, pretend = 0, frame = 0
 815              		@ frame_needed = 0, uses_anonymous_args = 0
 816              	.LVL72:
 817 0000 10B5     		push	{r4, lr}
 818              	.LCFI8:
 819              		.cfi_def_cfa_offset 8
 820              		.cfi_offset 4, -8
 821              		.cfi_offset 14, -4
 822 0002 0400     		movs	r4, r0
 483:Drivers/STM32F0xx_HAL_Driver/Src/stm32f0xx_hal_rtc_ex.c ****   {
 823              		.loc 1 483 0
 824 0004 0368     		ldr	r3, [r0]
 825 0006 9A68     		ldr	r2, [r3, #8]
 826 0008 1204     		lsls	r2, r2, #16
 827 000a 02D5     		bpl	.L40
 486:Drivers/STM32F0xx_HAL_Driver/Src/stm32f0xx_hal_rtc_ex.c ****     {
 828              		.loc 1 486 0
 829 000c DB68     		ldr	r3, [r3, #12]
 830 000e 1B05     		lsls	r3, r3, #20
 831 0010 14D4     		bmi	.L43
 832              	.LVL73:
 833              	.L40:
 497:Drivers/STM32F0xx_HAL_Driver/Src/stm32f0xx_hal_rtc_ex.c ****   {
 834              		.loc 1 497 0
 835 0012 2368     		ldr	r3, [r4]
 836 0014 1A6C     		ldr	r2, [r3, #64]
ARM GAS  /tmp/cc3tXaRV.s 			page 26


 837 0016 5207     		lsls	r2, r2, #29
 838 0018 02D5     		bpl	.L41
 500:Drivers/STM32F0xx_HAL_Driver/Src/stm32f0xx_hal_rtc_ex.c ****     {
 839              		.loc 1 500 0
 840 001a DB68     		ldr	r3, [r3, #12]
 841 001c 9B04     		lsls	r3, r3, #18
 842 001e 17D4     		bmi	.L44
 843              	.L41:
 511:Drivers/STM32F0xx_HAL_Driver/Src/stm32f0xx_hal_rtc_ex.c ****   {
 844              		.loc 1 511 0
 845 0020 2368     		ldr	r3, [r4]
 846 0022 1A6C     		ldr	r2, [r3, #64]
 847 0024 5207     		lsls	r2, r2, #29
 848 0026 02D5     		bpl	.L42
 514:Drivers/STM32F0xx_HAL_Driver/Src/stm32f0xx_hal_rtc_ex.c ****     {
 849              		.loc 1 514 0
 850 0028 DB68     		ldr	r3, [r3, #12]
 851 002a 5B04     		lsls	r3, r3, #17
 852 002c 1BD4     		bmi	.L45
 853              	.L42:
 541:Drivers/STM32F0xx_HAL_Driver/Src/stm32f0xx_hal_rtc_ex.c **** 
 854              		.loc 1 541 0
 855 002e 8022     		movs	r2, #128
 856 0030 1203     		lsls	r2, r2, #12
 857 0032 124B     		ldr	r3, .L46
 858 0034 5A61     		str	r2, [r3, #20]
 544:Drivers/STM32F0xx_HAL_Driver/Src/stm32f0xx_hal_rtc_ex.c **** }
 859              		.loc 1 544 0
 860 0036 0123     		movs	r3, #1
 861 0038 6377     		strb	r3, [r4, #29]
 545:Drivers/STM32F0xx_HAL_Driver/Src/stm32f0xx_hal_rtc_ex.c **** 
 862              		.loc 1 545 0
 863              		@ sp needed
 864              	.LVL74:
 865 003a 10BD     		pop	{r4, pc}
 866              	.LVL75:
 867              	.L43:
 489:Drivers/STM32F0xx_HAL_Driver/Src/stm32f0xx_hal_rtc_ex.c ****       
 868              		.loc 1 489 0
 869 003c FFF7FEFF 		bl	HAL_RTCEx_TimeStampEventCallback
 870              	.LVL76:
 492:Drivers/STM32F0xx_HAL_Driver/Src/stm32f0xx_hal_rtc_ex.c ****     }
 871              		.loc 1 492 0
 872 0040 2168     		ldr	r1, [r4]
 873 0042 CA68     		ldr	r2, [r1, #12]
 874 0044 FF23     		movs	r3, #255
 875 0046 1A40     		ands	r2, r3
 876 0048 0D4B     		ldr	r3, .L46+4
 877 004a 1343     		orrs	r3, r2
 878 004c CB60     		str	r3, [r1, #12]
 879 004e E0E7     		b	.L40
 880              	.L44:
 503:Drivers/STM32F0xx_HAL_Driver/Src/stm32f0xx_hal_rtc_ex.c **** 
 881              		.loc 1 503 0
 882 0050 2000     		movs	r0, r4
 883 0052 FFF7FEFF 		bl	HAL_RTCEx_Tamper1EventCallback
 884              	.LVL77:
ARM GAS  /tmp/cc3tXaRV.s 			page 27


 506:Drivers/STM32F0xx_HAL_Driver/Src/stm32f0xx_hal_rtc_ex.c ****     }
 885              		.loc 1 506 0
 886 0056 2168     		ldr	r1, [r4]
 887 0058 CA68     		ldr	r2, [r1, #12]
 888 005a FF23     		movs	r3, #255
 889 005c 1A40     		ands	r2, r3
 890 005e 094B     		ldr	r3, .L46+8
 891 0060 1343     		orrs	r3, r2
 892 0062 CB60     		str	r3, [r1, #12]
 893 0064 DCE7     		b	.L41
 894              	.L45:
 517:Drivers/STM32F0xx_HAL_Driver/Src/stm32f0xx_hal_rtc_ex.c **** 
 895              		.loc 1 517 0
 896 0066 2000     		movs	r0, r4
 897 0068 FFF7FEFF 		bl	HAL_RTCEx_Tamper2EventCallback
 898              	.LVL78:
 520:Drivers/STM32F0xx_HAL_Driver/Src/stm32f0xx_hal_rtc_ex.c ****     }
 899              		.loc 1 520 0
 900 006c 2168     		ldr	r1, [r4]
 901 006e CA68     		ldr	r2, [r1, #12]
 902 0070 FF23     		movs	r3, #255
 903 0072 1A40     		ands	r2, r3
 904 0074 044B     		ldr	r3, .L46+12
 905 0076 1343     		orrs	r3, r2
 906 0078 CB60     		str	r3, [r1, #12]
 907 007a D8E7     		b	.L42
 908              	.L47:
 909              		.align	2
 910              	.L46:
 911 007c 00040140 		.word	1073808384
 912 0080 7FF7FFFF 		.word	-2177
 913 0084 7FDFFFFF 		.word	-8321
 914 0088 7FBFFFFF 		.word	-16513
 915              		.cfi_endproc
 916              	.LFE42:
 918              		.section	.text.HAL_RTCEx_PollForTimeStampEvent,"ax",%progbits
 919              		.align	1
 920              		.global	HAL_RTCEx_PollForTimeStampEvent
 921              		.syntax unified
 922              		.code	16
 923              		.thumb_func
 924              		.fpu softvfp
 926              	HAL_RTCEx_PollForTimeStampEvent:
 927              	.LFB46:
 591:Drivers/STM32F0xx_HAL_Driver/Src/stm32f0xx_hal_rtc_ex.c **** 
 592:Drivers/STM32F0xx_HAL_Driver/Src/stm32f0xx_hal_rtc_ex.c **** #if defined(STM32F071xB) || defined(STM32F072xB) || defined(STM32F078xx) || defined(STM32F091xC) ||
 593:Drivers/STM32F0xx_HAL_Driver/Src/stm32f0xx_hal_rtc_ex.c **** /**
 594:Drivers/STM32F0xx_HAL_Driver/Src/stm32f0xx_hal_rtc_ex.c ****   * @brief  Tamper 3 callback. 
 595:Drivers/STM32F0xx_HAL_Driver/Src/stm32f0xx_hal_rtc_ex.c ****   * @param  hrtc RTC handle
 596:Drivers/STM32F0xx_HAL_Driver/Src/stm32f0xx_hal_rtc_ex.c ****   * @retval None
 597:Drivers/STM32F0xx_HAL_Driver/Src/stm32f0xx_hal_rtc_ex.c ****   */
 598:Drivers/STM32F0xx_HAL_Driver/Src/stm32f0xx_hal_rtc_ex.c **** __weak void HAL_RTCEx_Tamper3EventCallback(RTC_HandleTypeDef *hrtc)
 599:Drivers/STM32F0xx_HAL_Driver/Src/stm32f0xx_hal_rtc_ex.c **** {
 600:Drivers/STM32F0xx_HAL_Driver/Src/stm32f0xx_hal_rtc_ex.c ****   /* Prevent unused argument(s) compilation warning */
 601:Drivers/STM32F0xx_HAL_Driver/Src/stm32f0xx_hal_rtc_ex.c ****   UNUSED(hrtc);
 602:Drivers/STM32F0xx_HAL_Driver/Src/stm32f0xx_hal_rtc_ex.c **** 
 603:Drivers/STM32F0xx_HAL_Driver/Src/stm32f0xx_hal_rtc_ex.c ****   /* NOTE : This function should not be modified, when the callback is needed,
ARM GAS  /tmp/cc3tXaRV.s 			page 28


 604:Drivers/STM32F0xx_HAL_Driver/Src/stm32f0xx_hal_rtc_ex.c ****             the HAL_RTCEx_Tamper3EventCallback could be implemented in the user file
 605:Drivers/STM32F0xx_HAL_Driver/Src/stm32f0xx_hal_rtc_ex.c ****    */
 606:Drivers/STM32F0xx_HAL_Driver/Src/stm32f0xx_hal_rtc_ex.c **** }
 607:Drivers/STM32F0xx_HAL_Driver/Src/stm32f0xx_hal_rtc_ex.c **** #endif
 608:Drivers/STM32F0xx_HAL_Driver/Src/stm32f0xx_hal_rtc_ex.c **** 
 609:Drivers/STM32F0xx_HAL_Driver/Src/stm32f0xx_hal_rtc_ex.c **** /**
 610:Drivers/STM32F0xx_HAL_Driver/Src/stm32f0xx_hal_rtc_ex.c ****   * @brief  Handle TimeStamp polling request.
 611:Drivers/STM32F0xx_HAL_Driver/Src/stm32f0xx_hal_rtc_ex.c ****   * @param  hrtc RTC handle
 612:Drivers/STM32F0xx_HAL_Driver/Src/stm32f0xx_hal_rtc_ex.c ****   * @param  Timeout Timeout duration
 613:Drivers/STM32F0xx_HAL_Driver/Src/stm32f0xx_hal_rtc_ex.c ****   * @retval HAL status
 614:Drivers/STM32F0xx_HAL_Driver/Src/stm32f0xx_hal_rtc_ex.c ****   */
 615:Drivers/STM32F0xx_HAL_Driver/Src/stm32f0xx_hal_rtc_ex.c **** HAL_StatusTypeDef HAL_RTCEx_PollForTimeStampEvent(RTC_HandleTypeDef *hrtc, uint32_t Timeout)
 616:Drivers/STM32F0xx_HAL_Driver/Src/stm32f0xx_hal_rtc_ex.c **** { 
 928              		.loc 1 616 0
 929              		.cfi_startproc
 930              		@ args = 0, pretend = 0, frame = 0
 931              		@ frame_needed = 0, uses_anonymous_args = 0
 932              	.LVL79:
 933 0000 70B5     		push	{r4, r5, r6, lr}
 934              	.LCFI9:
 935              		.cfi_def_cfa_offset 16
 936              		.cfi_offset 4, -16
 937              		.cfi_offset 5, -12
 938              		.cfi_offset 6, -8
 939              		.cfi_offset 14, -4
 940 0002 0500     		movs	r5, r0
 941 0004 0E00     		movs	r6, r1
 617:Drivers/STM32F0xx_HAL_Driver/Src/stm32f0xx_hal_rtc_ex.c ****   uint32_t tickstart = HAL_GetTick();
 942              		.loc 1 617 0
 943 0006 FFF7FEFF 		bl	HAL_GetTick
 944              	.LVL80:
 945 000a 0400     		movs	r4, r0
 946              	.LVL81:
 947              	.L52:
 618:Drivers/STM32F0xx_HAL_Driver/Src/stm32f0xx_hal_rtc_ex.c **** 
 619:Drivers/STM32F0xx_HAL_Driver/Src/stm32f0xx_hal_rtc_ex.c ****   while(__HAL_RTC_TIMESTAMP_GET_FLAG(hrtc, RTC_FLAG_TSF) == RESET)
 948              		.loc 1 619 0
 949 000c 2B68     		ldr	r3, [r5]
 950 000e DA68     		ldr	r2, [r3, #12]
 951 0010 1205     		lsls	r2, r2, #20
 952 0012 19D4     		bmi	.L55
 620:Drivers/STM32F0xx_HAL_Driver/Src/stm32f0xx_hal_rtc_ex.c ****   {
 621:Drivers/STM32F0xx_HAL_Driver/Src/stm32f0xx_hal_rtc_ex.c ****     if(__HAL_RTC_TIMESTAMP_GET_FLAG(hrtc, RTC_FLAG_TSOVF) != RESET)
 953              		.loc 1 621 0
 954 0014 DA68     		ldr	r2, [r3, #12]
 955 0016 D204     		lsls	r2, r2, #19
 956 0018 0CD4     		bmi	.L56
 622:Drivers/STM32F0xx_HAL_Driver/Src/stm32f0xx_hal_rtc_ex.c ****     {
 623:Drivers/STM32F0xx_HAL_Driver/Src/stm32f0xx_hal_rtc_ex.c ****       /* Clear the TIMESTAMP OverRun Flag */
 624:Drivers/STM32F0xx_HAL_Driver/Src/stm32f0xx_hal_rtc_ex.c ****       __HAL_RTC_TIMESTAMP_CLEAR_FLAG(hrtc, RTC_FLAG_TSOVF);
 625:Drivers/STM32F0xx_HAL_Driver/Src/stm32f0xx_hal_rtc_ex.c **** 
 626:Drivers/STM32F0xx_HAL_Driver/Src/stm32f0xx_hal_rtc_ex.c ****       /* Change TIMESTAMP state */
 627:Drivers/STM32F0xx_HAL_Driver/Src/stm32f0xx_hal_rtc_ex.c ****       hrtc->State = HAL_RTC_STATE_ERROR;
 628:Drivers/STM32F0xx_HAL_Driver/Src/stm32f0xx_hal_rtc_ex.c **** 
 629:Drivers/STM32F0xx_HAL_Driver/Src/stm32f0xx_hal_rtc_ex.c ****       return HAL_ERROR;
 630:Drivers/STM32F0xx_HAL_Driver/Src/stm32f0xx_hal_rtc_ex.c ****     }
 631:Drivers/STM32F0xx_HAL_Driver/Src/stm32f0xx_hal_rtc_ex.c **** 
ARM GAS  /tmp/cc3tXaRV.s 			page 29


 632:Drivers/STM32F0xx_HAL_Driver/Src/stm32f0xx_hal_rtc_ex.c ****     if(Timeout != HAL_MAX_DELAY)
 957              		.loc 1 632 0
 958 001a 731C     		adds	r3, r6, #1
 959 001c F6D0     		beq	.L52
 633:Drivers/STM32F0xx_HAL_Driver/Src/stm32f0xx_hal_rtc_ex.c ****     {
 634:Drivers/STM32F0xx_HAL_Driver/Src/stm32f0xx_hal_rtc_ex.c ****       if((Timeout == 0U) || ((HAL_GetTick() - tickstart) > Timeout))
 960              		.loc 1 634 0
 961 001e 002E     		cmp	r6, #0
 962 0020 04D0     		beq	.L53
 963              		.loc 1 634 0 is_stmt 0 discriminator 1
 964 0022 FFF7FEFF 		bl	HAL_GetTick
 965              	.LVL82:
 966 0026 001B     		subs	r0, r0, r4
 967 0028 8642     		cmp	r6, r0
 968 002a EFD2     		bcs	.L52
 969              	.L53:
 635:Drivers/STM32F0xx_HAL_Driver/Src/stm32f0xx_hal_rtc_ex.c ****       {
 636:Drivers/STM32F0xx_HAL_Driver/Src/stm32f0xx_hal_rtc_ex.c ****         hrtc->State = HAL_RTC_STATE_TIMEOUT;
 970              		.loc 1 636 0 is_stmt 1
 971 002c 0323     		movs	r3, #3
 972 002e 6B77     		strb	r3, [r5, #29]
 637:Drivers/STM32F0xx_HAL_Driver/Src/stm32f0xx_hal_rtc_ex.c ****         return HAL_TIMEOUT;
 973              		.loc 1 637 0
 974 0030 0320     		movs	r0, #3
 975 0032 0CE0     		b	.L51
 976              	.L56:
 624:Drivers/STM32F0xx_HAL_Driver/Src/stm32f0xx_hal_rtc_ex.c **** 
 977              		.loc 1 624 0
 978 0034 D968     		ldr	r1, [r3, #12]
 979 0036 FF22     		movs	r2, #255
 980 0038 1140     		ands	r1, r2
 981 003a 054A     		ldr	r2, .L57
 982 003c 0A43     		orrs	r2, r1
 983 003e DA60     		str	r2, [r3, #12]
 627:Drivers/STM32F0xx_HAL_Driver/Src/stm32f0xx_hal_rtc_ex.c **** 
 984              		.loc 1 627 0
 985 0040 0423     		movs	r3, #4
 986 0042 6B77     		strb	r3, [r5, #29]
 629:Drivers/STM32F0xx_HAL_Driver/Src/stm32f0xx_hal_rtc_ex.c ****     }
 987              		.loc 1 629 0
 988 0044 0120     		movs	r0, #1
 989 0046 02E0     		b	.L51
 990              	.L55:
 638:Drivers/STM32F0xx_HAL_Driver/Src/stm32f0xx_hal_rtc_ex.c ****       }
 639:Drivers/STM32F0xx_HAL_Driver/Src/stm32f0xx_hal_rtc_ex.c ****     }
 640:Drivers/STM32F0xx_HAL_Driver/Src/stm32f0xx_hal_rtc_ex.c ****   }
 641:Drivers/STM32F0xx_HAL_Driver/Src/stm32f0xx_hal_rtc_ex.c **** 
 642:Drivers/STM32F0xx_HAL_Driver/Src/stm32f0xx_hal_rtc_ex.c ****   /* Change RTC state */
 643:Drivers/STM32F0xx_HAL_Driver/Src/stm32f0xx_hal_rtc_ex.c ****   hrtc->State = HAL_RTC_STATE_READY;
 991              		.loc 1 643 0
 992 0048 0123     		movs	r3, #1
 993 004a 6B77     		strb	r3, [r5, #29]
 644:Drivers/STM32F0xx_HAL_Driver/Src/stm32f0xx_hal_rtc_ex.c ****   
 645:Drivers/STM32F0xx_HAL_Driver/Src/stm32f0xx_hal_rtc_ex.c ****   return HAL_OK;
 994              		.loc 1 645 0
 995 004c 0020     		movs	r0, #0
 996              	.L51:
ARM GAS  /tmp/cc3tXaRV.s 			page 30


 646:Drivers/STM32F0xx_HAL_Driver/Src/stm32f0xx_hal_rtc_ex.c **** }
 997              		.loc 1 646 0
 998              		@ sp needed
 999              	.LVL83:
 1000              	.LVL84:
 1001              	.LVL85:
 1002 004e 70BD     		pop	{r4, r5, r6, pc}
 1003              	.L58:
 1004              		.align	2
 1005              	.L57:
 1006 0050 7FEFFFFF 		.word	-4225
 1007              		.cfi_endproc
 1008              	.LFE46:
 1010              		.section	.text.HAL_RTCEx_PollForTamper1Event,"ax",%progbits
 1011              		.align	1
 1012              		.global	HAL_RTCEx_PollForTamper1Event
 1013              		.syntax unified
 1014              		.code	16
 1015              		.thumb_func
 1016              		.fpu softvfp
 1018              	HAL_RTCEx_PollForTamper1Event:
 1019              	.LFB47:
 647:Drivers/STM32F0xx_HAL_Driver/Src/stm32f0xx_hal_rtc_ex.c **** 
 648:Drivers/STM32F0xx_HAL_Driver/Src/stm32f0xx_hal_rtc_ex.c **** /**
 649:Drivers/STM32F0xx_HAL_Driver/Src/stm32f0xx_hal_rtc_ex.c ****   * @brief  Handle Tamper 1 Polling.
 650:Drivers/STM32F0xx_HAL_Driver/Src/stm32f0xx_hal_rtc_ex.c ****   * @param  hrtc RTC handle
 651:Drivers/STM32F0xx_HAL_Driver/Src/stm32f0xx_hal_rtc_ex.c ****   * @param  Timeout Timeout duration
 652:Drivers/STM32F0xx_HAL_Driver/Src/stm32f0xx_hal_rtc_ex.c ****   * @retval HAL status
 653:Drivers/STM32F0xx_HAL_Driver/Src/stm32f0xx_hal_rtc_ex.c ****   */
 654:Drivers/STM32F0xx_HAL_Driver/Src/stm32f0xx_hal_rtc_ex.c **** HAL_StatusTypeDef HAL_RTCEx_PollForTamper1Event(RTC_HandleTypeDef *hrtc, uint32_t Timeout)
 655:Drivers/STM32F0xx_HAL_Driver/Src/stm32f0xx_hal_rtc_ex.c **** {
 1020              		.loc 1 655 0
 1021              		.cfi_startproc
 1022              		@ args = 0, pretend = 0, frame = 0
 1023              		@ frame_needed = 0, uses_anonymous_args = 0
 1024              	.LVL86:
 1025 0000 70B5     		push	{r4, r5, r6, lr}
 1026              	.LCFI10:
 1027              		.cfi_def_cfa_offset 16
 1028              		.cfi_offset 4, -16
 1029              		.cfi_offset 5, -12
 1030              		.cfi_offset 6, -8
 1031              		.cfi_offset 14, -4
 1032 0002 0400     		movs	r4, r0
 1033 0004 0D00     		movs	r5, r1
 656:Drivers/STM32F0xx_HAL_Driver/Src/stm32f0xx_hal_rtc_ex.c ****   uint32_t tickstart = HAL_GetTick();
 1034              		.loc 1 656 0
 1035 0006 FFF7FEFF 		bl	HAL_GetTick
 1036              	.LVL87:
 1037 000a 0600     		movs	r6, r0
 1038              	.LVL88:
 1039              	.L61:
 657:Drivers/STM32F0xx_HAL_Driver/Src/stm32f0xx_hal_rtc_ex.c **** 
 658:Drivers/STM32F0xx_HAL_Driver/Src/stm32f0xx_hal_rtc_ex.c ****   /* Get the status of the Interrupt */
 659:Drivers/STM32F0xx_HAL_Driver/Src/stm32f0xx_hal_rtc_ex.c ****   while(__HAL_RTC_TAMPER_GET_FLAG(hrtc,RTC_FLAG_TAMP1F)== RESET)
 1040              		.loc 1 659 0
 1041 000c 2368     		ldr	r3, [r4]
ARM GAS  /tmp/cc3tXaRV.s 			page 31


 1042 000e DA68     		ldr	r2, [r3, #12]
 1043 0010 9204     		lsls	r2, r2, #18
 1044 0012 0CD4     		bmi	.L65
 660:Drivers/STM32F0xx_HAL_Driver/Src/stm32f0xx_hal_rtc_ex.c ****   {
 661:Drivers/STM32F0xx_HAL_Driver/Src/stm32f0xx_hal_rtc_ex.c ****     if(Timeout != HAL_MAX_DELAY)
 1045              		.loc 1 661 0
 1046 0014 6B1C     		adds	r3, r5, #1
 1047 0016 F9D0     		beq	.L61
 662:Drivers/STM32F0xx_HAL_Driver/Src/stm32f0xx_hal_rtc_ex.c ****     {
 663:Drivers/STM32F0xx_HAL_Driver/Src/stm32f0xx_hal_rtc_ex.c ****       if((Timeout == 0U) || ((HAL_GetTick() - tickstart) > Timeout))
 1048              		.loc 1 663 0
 1049 0018 002D     		cmp	r5, #0
 1050 001a 04D0     		beq	.L62
 1051              		.loc 1 663 0 is_stmt 0 discriminator 1
 1052 001c FFF7FEFF 		bl	HAL_GetTick
 1053              	.LVL89:
 1054 0020 801B     		subs	r0, r0, r6
 1055 0022 8542     		cmp	r5, r0
 1056 0024 F2D2     		bcs	.L61
 1057              	.L62:
 664:Drivers/STM32F0xx_HAL_Driver/Src/stm32f0xx_hal_rtc_ex.c ****       {
 665:Drivers/STM32F0xx_HAL_Driver/Src/stm32f0xx_hal_rtc_ex.c ****         hrtc->State = HAL_RTC_STATE_TIMEOUT;
 1058              		.loc 1 665 0 is_stmt 1
 1059 0026 0323     		movs	r3, #3
 1060 0028 6377     		strb	r3, [r4, #29]
 666:Drivers/STM32F0xx_HAL_Driver/Src/stm32f0xx_hal_rtc_ex.c ****         return HAL_TIMEOUT;
 1061              		.loc 1 666 0
 1062 002a 0320     		movs	r0, #3
 1063 002c 08E0     		b	.L63
 1064              	.L65:
 667:Drivers/STM32F0xx_HAL_Driver/Src/stm32f0xx_hal_rtc_ex.c ****       }
 668:Drivers/STM32F0xx_HAL_Driver/Src/stm32f0xx_hal_rtc_ex.c ****     }
 669:Drivers/STM32F0xx_HAL_Driver/Src/stm32f0xx_hal_rtc_ex.c ****   }
 670:Drivers/STM32F0xx_HAL_Driver/Src/stm32f0xx_hal_rtc_ex.c **** 
 671:Drivers/STM32F0xx_HAL_Driver/Src/stm32f0xx_hal_rtc_ex.c ****   /* Clear the Tamper Flag */
 672:Drivers/STM32F0xx_HAL_Driver/Src/stm32f0xx_hal_rtc_ex.c ****   __HAL_RTC_TAMPER_CLEAR_FLAG(hrtc,RTC_FLAG_TAMP1F);
 1065              		.loc 1 672 0
 1066 002e D968     		ldr	r1, [r3, #12]
 1067 0030 FF22     		movs	r2, #255
 1068 0032 1140     		ands	r1, r2
 1069 0034 034A     		ldr	r2, .L66
 1070 0036 0A43     		orrs	r2, r1
 1071 0038 DA60     		str	r2, [r3, #12]
 673:Drivers/STM32F0xx_HAL_Driver/Src/stm32f0xx_hal_rtc_ex.c ****   
 674:Drivers/STM32F0xx_HAL_Driver/Src/stm32f0xx_hal_rtc_ex.c ****   /* Change RTC state */
 675:Drivers/STM32F0xx_HAL_Driver/Src/stm32f0xx_hal_rtc_ex.c ****   hrtc->State = HAL_RTC_STATE_READY;
 1072              		.loc 1 675 0
 1073 003a 0123     		movs	r3, #1
 1074 003c 6377     		strb	r3, [r4, #29]
 676:Drivers/STM32F0xx_HAL_Driver/Src/stm32f0xx_hal_rtc_ex.c ****   
 677:Drivers/STM32F0xx_HAL_Driver/Src/stm32f0xx_hal_rtc_ex.c ****   return HAL_OK; 
 1075              		.loc 1 677 0
 1076 003e 0020     		movs	r0, #0
 1077              	.L63:
 678:Drivers/STM32F0xx_HAL_Driver/Src/stm32f0xx_hal_rtc_ex.c **** }
 1078              		.loc 1 678 0
 1079              		@ sp needed
ARM GAS  /tmp/cc3tXaRV.s 			page 32


 1080              	.LVL90:
 1081              	.LVL91:
 1082              	.LVL92:
 1083 0040 70BD     		pop	{r4, r5, r6, pc}
 1084              	.L67:
 1085 0042 C046     		.align	2
 1086              	.L66:
 1087 0044 7FDFFFFF 		.word	-8321
 1088              		.cfi_endproc
 1089              	.LFE47:
 1091              		.section	.text.HAL_RTCEx_PollForTamper2Event,"ax",%progbits
 1092              		.align	1
 1093              		.global	HAL_RTCEx_PollForTamper2Event
 1094              		.syntax unified
 1095              		.code	16
 1096              		.thumb_func
 1097              		.fpu softvfp
 1099              	HAL_RTCEx_PollForTamper2Event:
 1100              	.LFB48:
 679:Drivers/STM32F0xx_HAL_Driver/Src/stm32f0xx_hal_rtc_ex.c **** 
 680:Drivers/STM32F0xx_HAL_Driver/Src/stm32f0xx_hal_rtc_ex.c **** /**
 681:Drivers/STM32F0xx_HAL_Driver/Src/stm32f0xx_hal_rtc_ex.c ****   * @brief  Handle Tamper 2 Polling.
 682:Drivers/STM32F0xx_HAL_Driver/Src/stm32f0xx_hal_rtc_ex.c ****   * @param  hrtc RTC handle
 683:Drivers/STM32F0xx_HAL_Driver/Src/stm32f0xx_hal_rtc_ex.c ****   * @param  Timeout Timeout duration
 684:Drivers/STM32F0xx_HAL_Driver/Src/stm32f0xx_hal_rtc_ex.c ****   * @retval HAL status
 685:Drivers/STM32F0xx_HAL_Driver/Src/stm32f0xx_hal_rtc_ex.c ****   */
 686:Drivers/STM32F0xx_HAL_Driver/Src/stm32f0xx_hal_rtc_ex.c **** HAL_StatusTypeDef HAL_RTCEx_PollForTamper2Event(RTC_HandleTypeDef *hrtc, uint32_t Timeout)
 687:Drivers/STM32F0xx_HAL_Driver/Src/stm32f0xx_hal_rtc_ex.c **** {
 1101              		.loc 1 687 0
 1102              		.cfi_startproc
 1103              		@ args = 0, pretend = 0, frame = 0
 1104              		@ frame_needed = 0, uses_anonymous_args = 0
 1105              	.LVL93:
 1106 0000 70B5     		push	{r4, r5, r6, lr}
 1107              	.LCFI11:
 1108              		.cfi_def_cfa_offset 16
 1109              		.cfi_offset 4, -16
 1110              		.cfi_offset 5, -12
 1111              		.cfi_offset 6, -8
 1112              		.cfi_offset 14, -4
 1113 0002 0400     		movs	r4, r0
 1114 0004 0D00     		movs	r5, r1
 688:Drivers/STM32F0xx_HAL_Driver/Src/stm32f0xx_hal_rtc_ex.c ****   uint32_t tickstart = HAL_GetTick();
 1115              		.loc 1 688 0
 1116 0006 FFF7FEFF 		bl	HAL_GetTick
 1117              	.LVL94:
 1118 000a 0600     		movs	r6, r0
 1119              	.LVL95:
 1120              	.L70:
 689:Drivers/STM32F0xx_HAL_Driver/Src/stm32f0xx_hal_rtc_ex.c **** 
 690:Drivers/STM32F0xx_HAL_Driver/Src/stm32f0xx_hal_rtc_ex.c ****   /* Get the status of the Interrupt */
 691:Drivers/STM32F0xx_HAL_Driver/Src/stm32f0xx_hal_rtc_ex.c ****   while(__HAL_RTC_TAMPER_GET_FLAG(hrtc,RTC_FLAG_TAMP2F) == RESET)
 1121              		.loc 1 691 0
 1122 000c 2368     		ldr	r3, [r4]
 1123 000e DA68     		ldr	r2, [r3, #12]
 1124 0010 5204     		lsls	r2, r2, #17
 1125 0012 0CD4     		bmi	.L74
ARM GAS  /tmp/cc3tXaRV.s 			page 33


 692:Drivers/STM32F0xx_HAL_Driver/Src/stm32f0xx_hal_rtc_ex.c ****   {
 693:Drivers/STM32F0xx_HAL_Driver/Src/stm32f0xx_hal_rtc_ex.c ****     if(Timeout != HAL_MAX_DELAY)
 1126              		.loc 1 693 0
 1127 0014 6B1C     		adds	r3, r5, #1
 1128 0016 F9D0     		beq	.L70
 694:Drivers/STM32F0xx_HAL_Driver/Src/stm32f0xx_hal_rtc_ex.c ****     {
 695:Drivers/STM32F0xx_HAL_Driver/Src/stm32f0xx_hal_rtc_ex.c ****       if((Timeout == 0U) || ((HAL_GetTick() - tickstart) > Timeout))
 1129              		.loc 1 695 0
 1130 0018 002D     		cmp	r5, #0
 1131 001a 04D0     		beq	.L71
 1132              		.loc 1 695 0 is_stmt 0 discriminator 1
 1133 001c FFF7FEFF 		bl	HAL_GetTick
 1134              	.LVL96:
 1135 0020 801B     		subs	r0, r0, r6
 1136 0022 8542     		cmp	r5, r0
 1137 0024 F2D2     		bcs	.L70
 1138              	.L71:
 696:Drivers/STM32F0xx_HAL_Driver/Src/stm32f0xx_hal_rtc_ex.c ****       {
 697:Drivers/STM32F0xx_HAL_Driver/Src/stm32f0xx_hal_rtc_ex.c ****         hrtc->State = HAL_RTC_STATE_TIMEOUT;
 1139              		.loc 1 697 0 is_stmt 1
 1140 0026 0323     		movs	r3, #3
 1141 0028 6377     		strb	r3, [r4, #29]
 698:Drivers/STM32F0xx_HAL_Driver/Src/stm32f0xx_hal_rtc_ex.c ****         return HAL_TIMEOUT;
 1142              		.loc 1 698 0
 1143 002a 0320     		movs	r0, #3
 1144 002c 08E0     		b	.L72
 1145              	.L74:
 699:Drivers/STM32F0xx_HAL_Driver/Src/stm32f0xx_hal_rtc_ex.c ****       }
 700:Drivers/STM32F0xx_HAL_Driver/Src/stm32f0xx_hal_rtc_ex.c ****     }
 701:Drivers/STM32F0xx_HAL_Driver/Src/stm32f0xx_hal_rtc_ex.c ****   }
 702:Drivers/STM32F0xx_HAL_Driver/Src/stm32f0xx_hal_rtc_ex.c **** 
 703:Drivers/STM32F0xx_HAL_Driver/Src/stm32f0xx_hal_rtc_ex.c ****   /* Clear the Tamper Flag */
 704:Drivers/STM32F0xx_HAL_Driver/Src/stm32f0xx_hal_rtc_ex.c ****   __HAL_RTC_TAMPER_CLEAR_FLAG(hrtc,RTC_FLAG_TAMP2F);
 1146              		.loc 1 704 0
 1147 002e D968     		ldr	r1, [r3, #12]
 1148 0030 FF22     		movs	r2, #255
 1149 0032 1140     		ands	r1, r2
 1150 0034 034A     		ldr	r2, .L75
 1151 0036 0A43     		orrs	r2, r1
 1152 0038 DA60     		str	r2, [r3, #12]
 705:Drivers/STM32F0xx_HAL_Driver/Src/stm32f0xx_hal_rtc_ex.c **** 
 706:Drivers/STM32F0xx_HAL_Driver/Src/stm32f0xx_hal_rtc_ex.c ****   /* Change RTC state */
 707:Drivers/STM32F0xx_HAL_Driver/Src/stm32f0xx_hal_rtc_ex.c ****   hrtc->State = HAL_RTC_STATE_READY;
 1153              		.loc 1 707 0
 1154 003a 0123     		movs	r3, #1
 1155 003c 6377     		strb	r3, [r4, #29]
 708:Drivers/STM32F0xx_HAL_Driver/Src/stm32f0xx_hal_rtc_ex.c **** 
 709:Drivers/STM32F0xx_HAL_Driver/Src/stm32f0xx_hal_rtc_ex.c ****   return HAL_OK;
 1156              		.loc 1 709 0
 1157 003e 0020     		movs	r0, #0
 1158              	.L72:
 710:Drivers/STM32F0xx_HAL_Driver/Src/stm32f0xx_hal_rtc_ex.c **** }
 1159              		.loc 1 710 0
 1160              		@ sp needed
 1161              	.LVL97:
 1162              	.LVL98:
 1163              	.LVL99:
ARM GAS  /tmp/cc3tXaRV.s 			page 34


 1164 0040 70BD     		pop	{r4, r5, r6, pc}
 1165              	.L76:
 1166 0042 C046     		.align	2
 1167              	.L75:
 1168 0044 7FBFFFFF 		.word	-16513
 1169              		.cfi_endproc
 1170              	.LFE48:
 1172              		.section	.text.HAL_RTCEx_SetSmoothCalib,"ax",%progbits
 1173              		.align	1
 1174              		.global	HAL_RTCEx_SetSmoothCalib
 1175              		.syntax unified
 1176              		.code	16
 1177              		.thumb_func
 1178              		.fpu softvfp
 1180              	HAL_RTCEx_SetSmoothCalib:
 1181              	.LFB49:
 711:Drivers/STM32F0xx_HAL_Driver/Src/stm32f0xx_hal_rtc_ex.c **** 
 712:Drivers/STM32F0xx_HAL_Driver/Src/stm32f0xx_hal_rtc_ex.c **** #if defined(STM32F071xB) || defined(STM32F072xB) || defined(STM32F078xx) || defined(STM32F091xC) ||
 713:Drivers/STM32F0xx_HAL_Driver/Src/stm32f0xx_hal_rtc_ex.c **** /**
 714:Drivers/STM32F0xx_HAL_Driver/Src/stm32f0xx_hal_rtc_ex.c ****   * @brief  Handle Tamper 3 Polling.
 715:Drivers/STM32F0xx_HAL_Driver/Src/stm32f0xx_hal_rtc_ex.c ****   * @param  hrtc RTC handle
 716:Drivers/STM32F0xx_HAL_Driver/Src/stm32f0xx_hal_rtc_ex.c ****   * @param  Timeout Timeout duration
 717:Drivers/STM32F0xx_HAL_Driver/Src/stm32f0xx_hal_rtc_ex.c ****   * @retval HAL status
 718:Drivers/STM32F0xx_HAL_Driver/Src/stm32f0xx_hal_rtc_ex.c ****   */
 719:Drivers/STM32F0xx_HAL_Driver/Src/stm32f0xx_hal_rtc_ex.c **** HAL_StatusTypeDef HAL_RTCEx_PollForTamper3Event(RTC_HandleTypeDef *hrtc, uint32_t Timeout)
 720:Drivers/STM32F0xx_HAL_Driver/Src/stm32f0xx_hal_rtc_ex.c **** {  
 721:Drivers/STM32F0xx_HAL_Driver/Src/stm32f0xx_hal_rtc_ex.c ****   uint32_t tickstart = HAL_GetTick();
 722:Drivers/STM32F0xx_HAL_Driver/Src/stm32f0xx_hal_rtc_ex.c **** 
 723:Drivers/STM32F0xx_HAL_Driver/Src/stm32f0xx_hal_rtc_ex.c ****   /* Get the status of the Interrupt */
 724:Drivers/STM32F0xx_HAL_Driver/Src/stm32f0xx_hal_rtc_ex.c ****   while(__HAL_RTC_TAMPER_GET_FLAG(hrtc,RTC_FLAG_TAMP3F) == RESET)
 725:Drivers/STM32F0xx_HAL_Driver/Src/stm32f0xx_hal_rtc_ex.c ****   {
 726:Drivers/STM32F0xx_HAL_Driver/Src/stm32f0xx_hal_rtc_ex.c ****     if(Timeout != HAL_MAX_DELAY)
 727:Drivers/STM32F0xx_HAL_Driver/Src/stm32f0xx_hal_rtc_ex.c ****     {
 728:Drivers/STM32F0xx_HAL_Driver/Src/stm32f0xx_hal_rtc_ex.c ****       if((Timeout == 0U) || ((HAL_GetTick() - tickstart) > Timeout))
 729:Drivers/STM32F0xx_HAL_Driver/Src/stm32f0xx_hal_rtc_ex.c ****       {
 730:Drivers/STM32F0xx_HAL_Driver/Src/stm32f0xx_hal_rtc_ex.c ****         hrtc->State = HAL_RTC_STATE_TIMEOUT;
 731:Drivers/STM32F0xx_HAL_Driver/Src/stm32f0xx_hal_rtc_ex.c ****         return HAL_TIMEOUT;
 732:Drivers/STM32F0xx_HAL_Driver/Src/stm32f0xx_hal_rtc_ex.c ****       }
 733:Drivers/STM32F0xx_HAL_Driver/Src/stm32f0xx_hal_rtc_ex.c ****     }
 734:Drivers/STM32F0xx_HAL_Driver/Src/stm32f0xx_hal_rtc_ex.c ****   }
 735:Drivers/STM32F0xx_HAL_Driver/Src/stm32f0xx_hal_rtc_ex.c **** 
 736:Drivers/STM32F0xx_HAL_Driver/Src/stm32f0xx_hal_rtc_ex.c ****   /* Clear the Tamper Flag */
 737:Drivers/STM32F0xx_HAL_Driver/Src/stm32f0xx_hal_rtc_ex.c ****   __HAL_RTC_TAMPER_CLEAR_FLAG(hrtc,RTC_FLAG_TAMP3F);
 738:Drivers/STM32F0xx_HAL_Driver/Src/stm32f0xx_hal_rtc_ex.c **** 
 739:Drivers/STM32F0xx_HAL_Driver/Src/stm32f0xx_hal_rtc_ex.c ****   /* Change RTC state */
 740:Drivers/STM32F0xx_HAL_Driver/Src/stm32f0xx_hal_rtc_ex.c ****   hrtc->State = HAL_RTC_STATE_READY;
 741:Drivers/STM32F0xx_HAL_Driver/Src/stm32f0xx_hal_rtc_ex.c **** 
 742:Drivers/STM32F0xx_HAL_Driver/Src/stm32f0xx_hal_rtc_ex.c ****   return HAL_OK;
 743:Drivers/STM32F0xx_HAL_Driver/Src/stm32f0xx_hal_rtc_ex.c **** }
 744:Drivers/STM32F0xx_HAL_Driver/Src/stm32f0xx_hal_rtc_ex.c **** #endif
 745:Drivers/STM32F0xx_HAL_Driver/Src/stm32f0xx_hal_rtc_ex.c **** 
 746:Drivers/STM32F0xx_HAL_Driver/Src/stm32f0xx_hal_rtc_ex.c **** /**
 747:Drivers/STM32F0xx_HAL_Driver/Src/stm32f0xx_hal_rtc_ex.c ****   * @}
 748:Drivers/STM32F0xx_HAL_Driver/Src/stm32f0xx_hal_rtc_ex.c ****   */
 749:Drivers/STM32F0xx_HAL_Driver/Src/stm32f0xx_hal_rtc_ex.c ****   
 750:Drivers/STM32F0xx_HAL_Driver/Src/stm32f0xx_hal_rtc_ex.c **** #if defined(STM32F070xB) || defined(STM32F071xB) || defined(STM32F072xB) || defined(STM32F078xx) ||
 751:Drivers/STM32F0xx_HAL_Driver/Src/stm32f0xx_hal_rtc_ex.c **** /** @addtogroup RTCEx_Exported_Functions_Group2
ARM GAS  /tmp/cc3tXaRV.s 			page 35


 752:Drivers/STM32F0xx_HAL_Driver/Src/stm32f0xx_hal_rtc_ex.c ****   * @brief    RTC Wake-up functions
 753:Drivers/STM32F0xx_HAL_Driver/Src/stm32f0xx_hal_rtc_ex.c ****   *
 754:Drivers/STM32F0xx_HAL_Driver/Src/stm32f0xx_hal_rtc_ex.c **** @verbatim   
 755:Drivers/STM32F0xx_HAL_Driver/Src/stm32f0xx_hal_rtc_ex.c ****  ===============================================================================
 756:Drivers/STM32F0xx_HAL_Driver/Src/stm32f0xx_hal_rtc_ex.c ****                         ##### RTC Wake-up functions #####
 757:Drivers/STM32F0xx_HAL_Driver/Src/stm32f0xx_hal_rtc_ex.c ****  ===============================================================================  
 758:Drivers/STM32F0xx_HAL_Driver/Src/stm32f0xx_hal_rtc_ex.c ****  
 759:Drivers/STM32F0xx_HAL_Driver/Src/stm32f0xx_hal_rtc_ex.c ****  [..] This section provides functions allowing to configure Wake-up feature
 760:Drivers/STM32F0xx_HAL_Driver/Src/stm32f0xx_hal_rtc_ex.c **** 
 761:Drivers/STM32F0xx_HAL_Driver/Src/stm32f0xx_hal_rtc_ex.c **** @endverbatim
 762:Drivers/STM32F0xx_HAL_Driver/Src/stm32f0xx_hal_rtc_ex.c ****   * @{
 763:Drivers/STM32F0xx_HAL_Driver/Src/stm32f0xx_hal_rtc_ex.c ****   */
 764:Drivers/STM32F0xx_HAL_Driver/Src/stm32f0xx_hal_rtc_ex.c **** 
 765:Drivers/STM32F0xx_HAL_Driver/Src/stm32f0xx_hal_rtc_ex.c **** /**
 766:Drivers/STM32F0xx_HAL_Driver/Src/stm32f0xx_hal_rtc_ex.c ****   * @brief  Set wake up timer.
 767:Drivers/STM32F0xx_HAL_Driver/Src/stm32f0xx_hal_rtc_ex.c ****   * @param  hrtc RTC handle
 768:Drivers/STM32F0xx_HAL_Driver/Src/stm32f0xx_hal_rtc_ex.c ****   * @param  WakeUpCounter Wake up counter
 769:Drivers/STM32F0xx_HAL_Driver/Src/stm32f0xx_hal_rtc_ex.c ****   * @param  WakeUpClock Wake up clock
 770:Drivers/STM32F0xx_HAL_Driver/Src/stm32f0xx_hal_rtc_ex.c ****   * @retval HAL status
 771:Drivers/STM32F0xx_HAL_Driver/Src/stm32f0xx_hal_rtc_ex.c ****   */
 772:Drivers/STM32F0xx_HAL_Driver/Src/stm32f0xx_hal_rtc_ex.c **** HAL_StatusTypeDef HAL_RTCEx_SetWakeUpTimer(RTC_HandleTypeDef *hrtc, uint32_t WakeUpCounter, uint32_
 773:Drivers/STM32F0xx_HAL_Driver/Src/stm32f0xx_hal_rtc_ex.c **** {
 774:Drivers/STM32F0xx_HAL_Driver/Src/stm32f0xx_hal_rtc_ex.c ****   uint32_t tickstart = 0U;
 775:Drivers/STM32F0xx_HAL_Driver/Src/stm32f0xx_hal_rtc_ex.c **** 
 776:Drivers/STM32F0xx_HAL_Driver/Src/stm32f0xx_hal_rtc_ex.c ****   /* Check the parameters */
 777:Drivers/STM32F0xx_HAL_Driver/Src/stm32f0xx_hal_rtc_ex.c ****   assert_param(IS_RTC_WAKEUP_CLOCK(WakeUpClock));
 778:Drivers/STM32F0xx_HAL_Driver/Src/stm32f0xx_hal_rtc_ex.c ****   assert_param(IS_RTC_WAKEUP_COUNTER(WakeUpCounter));
 779:Drivers/STM32F0xx_HAL_Driver/Src/stm32f0xx_hal_rtc_ex.c **** 
 780:Drivers/STM32F0xx_HAL_Driver/Src/stm32f0xx_hal_rtc_ex.c ****   /* Process Locked */
 781:Drivers/STM32F0xx_HAL_Driver/Src/stm32f0xx_hal_rtc_ex.c ****   __HAL_LOCK(hrtc);
 782:Drivers/STM32F0xx_HAL_Driver/Src/stm32f0xx_hal_rtc_ex.c **** 
 783:Drivers/STM32F0xx_HAL_Driver/Src/stm32f0xx_hal_rtc_ex.c ****   hrtc->State = HAL_RTC_STATE_BUSY;
 784:Drivers/STM32F0xx_HAL_Driver/Src/stm32f0xx_hal_rtc_ex.c **** 
 785:Drivers/STM32F0xx_HAL_Driver/Src/stm32f0xx_hal_rtc_ex.c ****   /* Disable the write protection for RTC registers */
 786:Drivers/STM32F0xx_HAL_Driver/Src/stm32f0xx_hal_rtc_ex.c ****   __HAL_RTC_WRITEPROTECTION_DISABLE(hrtc);
 787:Drivers/STM32F0xx_HAL_Driver/Src/stm32f0xx_hal_rtc_ex.c **** 
 788:Drivers/STM32F0xx_HAL_Driver/Src/stm32f0xx_hal_rtc_ex.c ****   /*Check RTC WUTWF flag is reset only when wake up timer enabled*/
 789:Drivers/STM32F0xx_HAL_Driver/Src/stm32f0xx_hal_rtc_ex.c ****   if((hrtc->Instance->CR & RTC_CR_WUTE) != RESET){
 790:Drivers/STM32F0xx_HAL_Driver/Src/stm32f0xx_hal_rtc_ex.c ****     tickstart = HAL_GetTick();
 791:Drivers/STM32F0xx_HAL_Driver/Src/stm32f0xx_hal_rtc_ex.c **** 
 792:Drivers/STM32F0xx_HAL_Driver/Src/stm32f0xx_hal_rtc_ex.c ****    /* Wait till RTC WUTWF flag is reset and if Time out is reached exit */
 793:Drivers/STM32F0xx_HAL_Driver/Src/stm32f0xx_hal_rtc_ex.c ****    while(__HAL_RTC_WAKEUPTIMER_GET_FLAG(hrtc, RTC_FLAG_WUTWF) == SET)
 794:Drivers/STM32F0xx_HAL_Driver/Src/stm32f0xx_hal_rtc_ex.c ****    {
 795:Drivers/STM32F0xx_HAL_Driver/Src/stm32f0xx_hal_rtc_ex.c ****     if((HAL_GetTick() - tickstart ) > RTC_TIMEOUT_VALUE)
 796:Drivers/STM32F0xx_HAL_Driver/Src/stm32f0xx_hal_rtc_ex.c ****       {
 797:Drivers/STM32F0xx_HAL_Driver/Src/stm32f0xx_hal_rtc_ex.c ****        /* Enable the write protection for RTC registers */
 798:Drivers/STM32F0xx_HAL_Driver/Src/stm32f0xx_hal_rtc_ex.c ****        __HAL_RTC_WRITEPROTECTION_ENABLE(hrtc);
 799:Drivers/STM32F0xx_HAL_Driver/Src/stm32f0xx_hal_rtc_ex.c **** 
 800:Drivers/STM32F0xx_HAL_Driver/Src/stm32f0xx_hal_rtc_ex.c ****        hrtc->State = HAL_RTC_STATE_TIMEOUT;
 801:Drivers/STM32F0xx_HAL_Driver/Src/stm32f0xx_hal_rtc_ex.c **** 
 802:Drivers/STM32F0xx_HAL_Driver/Src/stm32f0xx_hal_rtc_ex.c ****        /* Process Unlocked */ 
 803:Drivers/STM32F0xx_HAL_Driver/Src/stm32f0xx_hal_rtc_ex.c ****        __HAL_UNLOCK(hrtc);
 804:Drivers/STM32F0xx_HAL_Driver/Src/stm32f0xx_hal_rtc_ex.c **** 
 805:Drivers/STM32F0xx_HAL_Driver/Src/stm32f0xx_hal_rtc_ex.c ****        return HAL_TIMEOUT;
 806:Drivers/STM32F0xx_HAL_Driver/Src/stm32f0xx_hal_rtc_ex.c ****       }
 807:Drivers/STM32F0xx_HAL_Driver/Src/stm32f0xx_hal_rtc_ex.c ****     }
 808:Drivers/STM32F0xx_HAL_Driver/Src/stm32f0xx_hal_rtc_ex.c ****   }
ARM GAS  /tmp/cc3tXaRV.s 			page 36


 809:Drivers/STM32F0xx_HAL_Driver/Src/stm32f0xx_hal_rtc_ex.c **** 
 810:Drivers/STM32F0xx_HAL_Driver/Src/stm32f0xx_hal_rtc_ex.c ****   __HAL_RTC_WAKEUPTIMER_DISABLE(hrtc);
 811:Drivers/STM32F0xx_HAL_Driver/Src/stm32f0xx_hal_rtc_ex.c **** 
 812:Drivers/STM32F0xx_HAL_Driver/Src/stm32f0xx_hal_rtc_ex.c ****   tickstart = HAL_GetTick();
 813:Drivers/STM32F0xx_HAL_Driver/Src/stm32f0xx_hal_rtc_ex.c **** 
 814:Drivers/STM32F0xx_HAL_Driver/Src/stm32f0xx_hal_rtc_ex.c ****   /* Wait till RTC WUTWF flag is set and if Time out is reached exit */
 815:Drivers/STM32F0xx_HAL_Driver/Src/stm32f0xx_hal_rtc_ex.c ****   while(__HAL_RTC_WAKEUPTIMER_GET_FLAG(hrtc, RTC_FLAG_WUTWF) == RESET)
 816:Drivers/STM32F0xx_HAL_Driver/Src/stm32f0xx_hal_rtc_ex.c ****   {
 817:Drivers/STM32F0xx_HAL_Driver/Src/stm32f0xx_hal_rtc_ex.c ****     if((HAL_GetTick()-tickstart) > RTC_TIMEOUT_VALUE)
 818:Drivers/STM32F0xx_HAL_Driver/Src/stm32f0xx_hal_rtc_ex.c ****     {
 819:Drivers/STM32F0xx_HAL_Driver/Src/stm32f0xx_hal_rtc_ex.c ****       /* Enable the write protection for RTC registers */
 820:Drivers/STM32F0xx_HAL_Driver/Src/stm32f0xx_hal_rtc_ex.c ****       __HAL_RTC_WRITEPROTECTION_ENABLE(hrtc);
 821:Drivers/STM32F0xx_HAL_Driver/Src/stm32f0xx_hal_rtc_ex.c **** 
 822:Drivers/STM32F0xx_HAL_Driver/Src/stm32f0xx_hal_rtc_ex.c ****       hrtc->State = HAL_RTC_STATE_TIMEOUT;
 823:Drivers/STM32F0xx_HAL_Driver/Src/stm32f0xx_hal_rtc_ex.c **** 
 824:Drivers/STM32F0xx_HAL_Driver/Src/stm32f0xx_hal_rtc_ex.c ****       /* Process Unlocked */
 825:Drivers/STM32F0xx_HAL_Driver/Src/stm32f0xx_hal_rtc_ex.c ****       __HAL_UNLOCK(hrtc);
 826:Drivers/STM32F0xx_HAL_Driver/Src/stm32f0xx_hal_rtc_ex.c **** 
 827:Drivers/STM32F0xx_HAL_Driver/Src/stm32f0xx_hal_rtc_ex.c ****       return HAL_TIMEOUT;
 828:Drivers/STM32F0xx_HAL_Driver/Src/stm32f0xx_hal_rtc_ex.c ****     }
 829:Drivers/STM32F0xx_HAL_Driver/Src/stm32f0xx_hal_rtc_ex.c ****   }
 830:Drivers/STM32F0xx_HAL_Driver/Src/stm32f0xx_hal_rtc_ex.c **** 
 831:Drivers/STM32F0xx_HAL_Driver/Src/stm32f0xx_hal_rtc_ex.c ****   /* Clear the Wakeup Timer clock source bits in CR register */
 832:Drivers/STM32F0xx_HAL_Driver/Src/stm32f0xx_hal_rtc_ex.c ****   hrtc->Instance->CR &= (uint32_t)~RTC_CR_WUCKSEL;
 833:Drivers/STM32F0xx_HAL_Driver/Src/stm32f0xx_hal_rtc_ex.c **** 
 834:Drivers/STM32F0xx_HAL_Driver/Src/stm32f0xx_hal_rtc_ex.c ****   /* Configure the clock source */
 835:Drivers/STM32F0xx_HAL_Driver/Src/stm32f0xx_hal_rtc_ex.c ****   hrtc->Instance->CR |= (uint32_t)WakeUpClock;
 836:Drivers/STM32F0xx_HAL_Driver/Src/stm32f0xx_hal_rtc_ex.c **** 
 837:Drivers/STM32F0xx_HAL_Driver/Src/stm32f0xx_hal_rtc_ex.c ****   /* Configure the Wakeup Timer counter */
 838:Drivers/STM32F0xx_HAL_Driver/Src/stm32f0xx_hal_rtc_ex.c ****   hrtc->Instance->WUTR = (uint32_t)WakeUpCounter;
 839:Drivers/STM32F0xx_HAL_Driver/Src/stm32f0xx_hal_rtc_ex.c **** 
 840:Drivers/STM32F0xx_HAL_Driver/Src/stm32f0xx_hal_rtc_ex.c ****    /* Enable the Wakeup Timer */
 841:Drivers/STM32F0xx_HAL_Driver/Src/stm32f0xx_hal_rtc_ex.c ****   __HAL_RTC_WAKEUPTIMER_ENABLE(hrtc);
 842:Drivers/STM32F0xx_HAL_Driver/Src/stm32f0xx_hal_rtc_ex.c **** 
 843:Drivers/STM32F0xx_HAL_Driver/Src/stm32f0xx_hal_rtc_ex.c ****   /* Enable the write protection for RTC registers */
 844:Drivers/STM32F0xx_HAL_Driver/Src/stm32f0xx_hal_rtc_ex.c ****   __HAL_RTC_WRITEPROTECTION_ENABLE(hrtc);
 845:Drivers/STM32F0xx_HAL_Driver/Src/stm32f0xx_hal_rtc_ex.c **** 
 846:Drivers/STM32F0xx_HAL_Driver/Src/stm32f0xx_hal_rtc_ex.c ****   hrtc->State = HAL_RTC_STATE_READY;
 847:Drivers/STM32F0xx_HAL_Driver/Src/stm32f0xx_hal_rtc_ex.c **** 
 848:Drivers/STM32F0xx_HAL_Driver/Src/stm32f0xx_hal_rtc_ex.c ****   /* Process Unlocked */
 849:Drivers/STM32F0xx_HAL_Driver/Src/stm32f0xx_hal_rtc_ex.c ****   __HAL_UNLOCK(hrtc);
 850:Drivers/STM32F0xx_HAL_Driver/Src/stm32f0xx_hal_rtc_ex.c **** 
 851:Drivers/STM32F0xx_HAL_Driver/Src/stm32f0xx_hal_rtc_ex.c ****   return HAL_OK;
 852:Drivers/STM32F0xx_HAL_Driver/Src/stm32f0xx_hal_rtc_ex.c **** }
 853:Drivers/STM32F0xx_HAL_Driver/Src/stm32f0xx_hal_rtc_ex.c **** 
 854:Drivers/STM32F0xx_HAL_Driver/Src/stm32f0xx_hal_rtc_ex.c **** /**
 855:Drivers/STM32F0xx_HAL_Driver/Src/stm32f0xx_hal_rtc_ex.c ****   * @brief  Set wake up timer with interrupt.
 856:Drivers/STM32F0xx_HAL_Driver/Src/stm32f0xx_hal_rtc_ex.c ****   * @param  hrtc RTC handle
 857:Drivers/STM32F0xx_HAL_Driver/Src/stm32f0xx_hal_rtc_ex.c ****   * @param  WakeUpCounter Wake up counter
 858:Drivers/STM32F0xx_HAL_Driver/Src/stm32f0xx_hal_rtc_ex.c ****   * @param  WakeUpClock Wake up clock  
 859:Drivers/STM32F0xx_HAL_Driver/Src/stm32f0xx_hal_rtc_ex.c ****   * @retval HAL status
 860:Drivers/STM32F0xx_HAL_Driver/Src/stm32f0xx_hal_rtc_ex.c ****   */
 861:Drivers/STM32F0xx_HAL_Driver/Src/stm32f0xx_hal_rtc_ex.c **** HAL_StatusTypeDef HAL_RTCEx_SetWakeUpTimer_IT(RTC_HandleTypeDef *hrtc, uint32_t WakeUpCounter, uint
 862:Drivers/STM32F0xx_HAL_Driver/Src/stm32f0xx_hal_rtc_ex.c **** {
 863:Drivers/STM32F0xx_HAL_Driver/Src/stm32f0xx_hal_rtc_ex.c ****   uint32_t tickstart = 0U;
 864:Drivers/STM32F0xx_HAL_Driver/Src/stm32f0xx_hal_rtc_ex.c **** 
 865:Drivers/STM32F0xx_HAL_Driver/Src/stm32f0xx_hal_rtc_ex.c ****   /* Check the parameters */
ARM GAS  /tmp/cc3tXaRV.s 			page 37


 866:Drivers/STM32F0xx_HAL_Driver/Src/stm32f0xx_hal_rtc_ex.c ****   assert_param(IS_RTC_WAKEUP_CLOCK(WakeUpClock));
 867:Drivers/STM32F0xx_HAL_Driver/Src/stm32f0xx_hal_rtc_ex.c ****   assert_param(IS_RTC_WAKEUP_COUNTER(WakeUpCounter));
 868:Drivers/STM32F0xx_HAL_Driver/Src/stm32f0xx_hal_rtc_ex.c **** 
 869:Drivers/STM32F0xx_HAL_Driver/Src/stm32f0xx_hal_rtc_ex.c ****   /* Process Locked */
 870:Drivers/STM32F0xx_HAL_Driver/Src/stm32f0xx_hal_rtc_ex.c ****   __HAL_LOCK(hrtc);
 871:Drivers/STM32F0xx_HAL_Driver/Src/stm32f0xx_hal_rtc_ex.c **** 
 872:Drivers/STM32F0xx_HAL_Driver/Src/stm32f0xx_hal_rtc_ex.c ****   hrtc->State = HAL_RTC_STATE_BUSY;
 873:Drivers/STM32F0xx_HAL_Driver/Src/stm32f0xx_hal_rtc_ex.c **** 
 874:Drivers/STM32F0xx_HAL_Driver/Src/stm32f0xx_hal_rtc_ex.c ****   /* Disable the write protection for RTC registers */
 875:Drivers/STM32F0xx_HAL_Driver/Src/stm32f0xx_hal_rtc_ex.c ****   __HAL_RTC_WRITEPROTECTION_DISABLE(hrtc);
 876:Drivers/STM32F0xx_HAL_Driver/Src/stm32f0xx_hal_rtc_ex.c **** 
 877:Drivers/STM32F0xx_HAL_Driver/Src/stm32f0xx_hal_rtc_ex.c ****   /*Check RTC WUTWF flag is reset only when wake up timer enabled*/
 878:Drivers/STM32F0xx_HAL_Driver/Src/stm32f0xx_hal_rtc_ex.c ****   if((hrtc->Instance->CR & RTC_CR_WUTE) != RESET){
 879:Drivers/STM32F0xx_HAL_Driver/Src/stm32f0xx_hal_rtc_ex.c ****     tickstart = HAL_GetTick();
 880:Drivers/STM32F0xx_HAL_Driver/Src/stm32f0xx_hal_rtc_ex.c **** 
 881:Drivers/STM32F0xx_HAL_Driver/Src/stm32f0xx_hal_rtc_ex.c ****    /* Wait till RTC WUTWF flag is reset and if Time out is reached exit */
 882:Drivers/STM32F0xx_HAL_Driver/Src/stm32f0xx_hal_rtc_ex.c ****    while(__HAL_RTC_WAKEUPTIMER_GET_FLAG(hrtc, RTC_FLAG_WUTWF) == SET)
 883:Drivers/STM32F0xx_HAL_Driver/Src/stm32f0xx_hal_rtc_ex.c ****    {
 884:Drivers/STM32F0xx_HAL_Driver/Src/stm32f0xx_hal_rtc_ex.c ****     if((HAL_GetTick() - tickstart ) > RTC_TIMEOUT_VALUE)
 885:Drivers/STM32F0xx_HAL_Driver/Src/stm32f0xx_hal_rtc_ex.c ****       {
 886:Drivers/STM32F0xx_HAL_Driver/Src/stm32f0xx_hal_rtc_ex.c ****        /* Enable the write protection for RTC registers */
 887:Drivers/STM32F0xx_HAL_Driver/Src/stm32f0xx_hal_rtc_ex.c ****        __HAL_RTC_WRITEPROTECTION_ENABLE(hrtc);
 888:Drivers/STM32F0xx_HAL_Driver/Src/stm32f0xx_hal_rtc_ex.c **** 
 889:Drivers/STM32F0xx_HAL_Driver/Src/stm32f0xx_hal_rtc_ex.c ****        hrtc->State = HAL_RTC_STATE_TIMEOUT;
 890:Drivers/STM32F0xx_HAL_Driver/Src/stm32f0xx_hal_rtc_ex.c **** 
 891:Drivers/STM32F0xx_HAL_Driver/Src/stm32f0xx_hal_rtc_ex.c ****        /* Process Unlocked */ 
 892:Drivers/STM32F0xx_HAL_Driver/Src/stm32f0xx_hal_rtc_ex.c ****        __HAL_UNLOCK(hrtc);
 893:Drivers/STM32F0xx_HAL_Driver/Src/stm32f0xx_hal_rtc_ex.c **** 
 894:Drivers/STM32F0xx_HAL_Driver/Src/stm32f0xx_hal_rtc_ex.c ****        return HAL_TIMEOUT;
 895:Drivers/STM32F0xx_HAL_Driver/Src/stm32f0xx_hal_rtc_ex.c ****       }
 896:Drivers/STM32F0xx_HAL_Driver/Src/stm32f0xx_hal_rtc_ex.c ****     }
 897:Drivers/STM32F0xx_HAL_Driver/Src/stm32f0xx_hal_rtc_ex.c ****   }
 898:Drivers/STM32F0xx_HAL_Driver/Src/stm32f0xx_hal_rtc_ex.c **** 
 899:Drivers/STM32F0xx_HAL_Driver/Src/stm32f0xx_hal_rtc_ex.c ****   /* Disable the Wake-Up timer */
 900:Drivers/STM32F0xx_HAL_Driver/Src/stm32f0xx_hal_rtc_ex.c ****   __HAL_RTC_WAKEUPTIMER_DISABLE(hrtc);
 901:Drivers/STM32F0xx_HAL_Driver/Src/stm32f0xx_hal_rtc_ex.c **** 
 902:Drivers/STM32F0xx_HAL_Driver/Src/stm32f0xx_hal_rtc_ex.c ****   /* Clear flag Wake-Up */
 903:Drivers/STM32F0xx_HAL_Driver/Src/stm32f0xx_hal_rtc_ex.c ****   __HAL_RTC_WAKEUPTIMER_CLEAR_FLAG(hrtc, RTC_FLAG_WUTF);
 904:Drivers/STM32F0xx_HAL_Driver/Src/stm32f0xx_hal_rtc_ex.c **** 
 905:Drivers/STM32F0xx_HAL_Driver/Src/stm32f0xx_hal_rtc_ex.c ****   tickstart = HAL_GetTick();
 906:Drivers/STM32F0xx_HAL_Driver/Src/stm32f0xx_hal_rtc_ex.c **** 
 907:Drivers/STM32F0xx_HAL_Driver/Src/stm32f0xx_hal_rtc_ex.c ****   /* Wait till RTC WUTWF flag is set and if Time out is reached exit */
 908:Drivers/STM32F0xx_HAL_Driver/Src/stm32f0xx_hal_rtc_ex.c ****   while(__HAL_RTC_WAKEUPTIMER_GET_FLAG(hrtc, RTC_FLAG_WUTWF) == RESET)
 909:Drivers/STM32F0xx_HAL_Driver/Src/stm32f0xx_hal_rtc_ex.c ****   {
 910:Drivers/STM32F0xx_HAL_Driver/Src/stm32f0xx_hal_rtc_ex.c ****     if((HAL_GetTick()-tickstart) > RTC_TIMEOUT_VALUE)
 911:Drivers/STM32F0xx_HAL_Driver/Src/stm32f0xx_hal_rtc_ex.c ****     {
 912:Drivers/STM32F0xx_HAL_Driver/Src/stm32f0xx_hal_rtc_ex.c ****       /* Enable the write protection for RTC registers */
 913:Drivers/STM32F0xx_HAL_Driver/Src/stm32f0xx_hal_rtc_ex.c ****       __HAL_RTC_WRITEPROTECTION_ENABLE(hrtc);
 914:Drivers/STM32F0xx_HAL_Driver/Src/stm32f0xx_hal_rtc_ex.c **** 
 915:Drivers/STM32F0xx_HAL_Driver/Src/stm32f0xx_hal_rtc_ex.c ****       hrtc->State = HAL_RTC_STATE_TIMEOUT;
 916:Drivers/STM32F0xx_HAL_Driver/Src/stm32f0xx_hal_rtc_ex.c **** 
 917:Drivers/STM32F0xx_HAL_Driver/Src/stm32f0xx_hal_rtc_ex.c ****       /* Process Unlocked */
 918:Drivers/STM32F0xx_HAL_Driver/Src/stm32f0xx_hal_rtc_ex.c ****       __HAL_UNLOCK(hrtc);
 919:Drivers/STM32F0xx_HAL_Driver/Src/stm32f0xx_hal_rtc_ex.c **** 
 920:Drivers/STM32F0xx_HAL_Driver/Src/stm32f0xx_hal_rtc_ex.c ****       return HAL_TIMEOUT;
 921:Drivers/STM32F0xx_HAL_Driver/Src/stm32f0xx_hal_rtc_ex.c ****     }
 922:Drivers/STM32F0xx_HAL_Driver/Src/stm32f0xx_hal_rtc_ex.c ****   }
ARM GAS  /tmp/cc3tXaRV.s 			page 38


 923:Drivers/STM32F0xx_HAL_Driver/Src/stm32f0xx_hal_rtc_ex.c **** 
 924:Drivers/STM32F0xx_HAL_Driver/Src/stm32f0xx_hal_rtc_ex.c ****   /* Configure the Wakeup Timer counter */
 925:Drivers/STM32F0xx_HAL_Driver/Src/stm32f0xx_hal_rtc_ex.c ****   hrtc->Instance->WUTR = (uint32_t)WakeUpCounter;
 926:Drivers/STM32F0xx_HAL_Driver/Src/stm32f0xx_hal_rtc_ex.c **** 
 927:Drivers/STM32F0xx_HAL_Driver/Src/stm32f0xx_hal_rtc_ex.c ****   /* Clear the Wakeup Timer clock source bits in CR register */
 928:Drivers/STM32F0xx_HAL_Driver/Src/stm32f0xx_hal_rtc_ex.c ****   hrtc->Instance->CR &= (uint32_t)~RTC_CR_WUCKSEL;
 929:Drivers/STM32F0xx_HAL_Driver/Src/stm32f0xx_hal_rtc_ex.c **** 
 930:Drivers/STM32F0xx_HAL_Driver/Src/stm32f0xx_hal_rtc_ex.c ****   /* Configure the clock source */
 931:Drivers/STM32F0xx_HAL_Driver/Src/stm32f0xx_hal_rtc_ex.c ****   hrtc->Instance->CR |= (uint32_t)WakeUpClock;
 932:Drivers/STM32F0xx_HAL_Driver/Src/stm32f0xx_hal_rtc_ex.c **** 
 933:Drivers/STM32F0xx_HAL_Driver/Src/stm32f0xx_hal_rtc_ex.c ****   /* RTC WakeUpTimer Interrupt Configuration: EXTI configuration */
 934:Drivers/STM32F0xx_HAL_Driver/Src/stm32f0xx_hal_rtc_ex.c ****   __HAL_RTC_WAKEUPTIMER_EXTI_ENABLE_IT();
 935:Drivers/STM32F0xx_HAL_Driver/Src/stm32f0xx_hal_rtc_ex.c **** 
 936:Drivers/STM32F0xx_HAL_Driver/Src/stm32f0xx_hal_rtc_ex.c ****   __HAL_RTC_WAKEUPTIMER_EXTI_ENABLE_RISING_EDGE();
 937:Drivers/STM32F0xx_HAL_Driver/Src/stm32f0xx_hal_rtc_ex.c **** 
 938:Drivers/STM32F0xx_HAL_Driver/Src/stm32f0xx_hal_rtc_ex.c ****   /* Configure the Interrupt in the RTC_CR register */
 939:Drivers/STM32F0xx_HAL_Driver/Src/stm32f0xx_hal_rtc_ex.c ****   __HAL_RTC_WAKEUPTIMER_ENABLE_IT(hrtc,RTC_IT_WUT);
 940:Drivers/STM32F0xx_HAL_Driver/Src/stm32f0xx_hal_rtc_ex.c ****   
 941:Drivers/STM32F0xx_HAL_Driver/Src/stm32f0xx_hal_rtc_ex.c ****   /* Enable the Wakeup Timer */
 942:Drivers/STM32F0xx_HAL_Driver/Src/stm32f0xx_hal_rtc_ex.c ****   __HAL_RTC_WAKEUPTIMER_ENABLE(hrtc);
 943:Drivers/STM32F0xx_HAL_Driver/Src/stm32f0xx_hal_rtc_ex.c **** 
 944:Drivers/STM32F0xx_HAL_Driver/Src/stm32f0xx_hal_rtc_ex.c ****   /* Enable the write protection for RTC registers */
 945:Drivers/STM32F0xx_HAL_Driver/Src/stm32f0xx_hal_rtc_ex.c ****   __HAL_RTC_WRITEPROTECTION_ENABLE(hrtc);
 946:Drivers/STM32F0xx_HAL_Driver/Src/stm32f0xx_hal_rtc_ex.c **** 
 947:Drivers/STM32F0xx_HAL_Driver/Src/stm32f0xx_hal_rtc_ex.c ****   hrtc->State = HAL_RTC_STATE_READY;
 948:Drivers/STM32F0xx_HAL_Driver/Src/stm32f0xx_hal_rtc_ex.c **** 
 949:Drivers/STM32F0xx_HAL_Driver/Src/stm32f0xx_hal_rtc_ex.c ****   /* Process Unlocked */
 950:Drivers/STM32F0xx_HAL_Driver/Src/stm32f0xx_hal_rtc_ex.c ****   __HAL_UNLOCK(hrtc);
 951:Drivers/STM32F0xx_HAL_Driver/Src/stm32f0xx_hal_rtc_ex.c **** 
 952:Drivers/STM32F0xx_HAL_Driver/Src/stm32f0xx_hal_rtc_ex.c ****   return HAL_OK;
 953:Drivers/STM32F0xx_HAL_Driver/Src/stm32f0xx_hal_rtc_ex.c **** }
 954:Drivers/STM32F0xx_HAL_Driver/Src/stm32f0xx_hal_rtc_ex.c **** 
 955:Drivers/STM32F0xx_HAL_Driver/Src/stm32f0xx_hal_rtc_ex.c **** /**
 956:Drivers/STM32F0xx_HAL_Driver/Src/stm32f0xx_hal_rtc_ex.c ****   * @brief  Deactivate wake up timer counter.
 957:Drivers/STM32F0xx_HAL_Driver/Src/stm32f0xx_hal_rtc_ex.c ****   * @param  hrtc RTC handle 
 958:Drivers/STM32F0xx_HAL_Driver/Src/stm32f0xx_hal_rtc_ex.c ****   * @retval HAL status
 959:Drivers/STM32F0xx_HAL_Driver/Src/stm32f0xx_hal_rtc_ex.c ****   */
 960:Drivers/STM32F0xx_HAL_Driver/Src/stm32f0xx_hal_rtc_ex.c **** uint32_t HAL_RTCEx_DeactivateWakeUpTimer(RTC_HandleTypeDef *hrtc)
 961:Drivers/STM32F0xx_HAL_Driver/Src/stm32f0xx_hal_rtc_ex.c **** {
 962:Drivers/STM32F0xx_HAL_Driver/Src/stm32f0xx_hal_rtc_ex.c ****   uint32_t tickstart = 0U;
 963:Drivers/STM32F0xx_HAL_Driver/Src/stm32f0xx_hal_rtc_ex.c **** 
 964:Drivers/STM32F0xx_HAL_Driver/Src/stm32f0xx_hal_rtc_ex.c ****   /* Process Locked */
 965:Drivers/STM32F0xx_HAL_Driver/Src/stm32f0xx_hal_rtc_ex.c ****   __HAL_LOCK(hrtc);
 966:Drivers/STM32F0xx_HAL_Driver/Src/stm32f0xx_hal_rtc_ex.c **** 
 967:Drivers/STM32F0xx_HAL_Driver/Src/stm32f0xx_hal_rtc_ex.c ****   hrtc->State = HAL_RTC_STATE_BUSY;
 968:Drivers/STM32F0xx_HAL_Driver/Src/stm32f0xx_hal_rtc_ex.c **** 
 969:Drivers/STM32F0xx_HAL_Driver/Src/stm32f0xx_hal_rtc_ex.c ****   /* Disable the write protection for RTC registers */
 970:Drivers/STM32F0xx_HAL_Driver/Src/stm32f0xx_hal_rtc_ex.c ****   __HAL_RTC_WRITEPROTECTION_DISABLE(hrtc);
 971:Drivers/STM32F0xx_HAL_Driver/Src/stm32f0xx_hal_rtc_ex.c **** 
 972:Drivers/STM32F0xx_HAL_Driver/Src/stm32f0xx_hal_rtc_ex.c ****   /* Disable the Wakeup Timer */
 973:Drivers/STM32F0xx_HAL_Driver/Src/stm32f0xx_hal_rtc_ex.c ****   __HAL_RTC_WAKEUPTIMER_DISABLE(hrtc);
 974:Drivers/STM32F0xx_HAL_Driver/Src/stm32f0xx_hal_rtc_ex.c **** 
 975:Drivers/STM32F0xx_HAL_Driver/Src/stm32f0xx_hal_rtc_ex.c ****   /* In case of interrupt mode is used, the interrupt source must disabled */
 976:Drivers/STM32F0xx_HAL_Driver/Src/stm32f0xx_hal_rtc_ex.c ****   __HAL_RTC_WAKEUPTIMER_DISABLE_IT(hrtc,RTC_IT_WUT);
 977:Drivers/STM32F0xx_HAL_Driver/Src/stm32f0xx_hal_rtc_ex.c **** 
 978:Drivers/STM32F0xx_HAL_Driver/Src/stm32f0xx_hal_rtc_ex.c ****   tickstart = HAL_GetTick();
 979:Drivers/STM32F0xx_HAL_Driver/Src/stm32f0xx_hal_rtc_ex.c ****   /* Wait till RTC WUTWF flag is set and if Time out is reached exit */
ARM GAS  /tmp/cc3tXaRV.s 			page 39


 980:Drivers/STM32F0xx_HAL_Driver/Src/stm32f0xx_hal_rtc_ex.c ****   while(__HAL_RTC_WAKEUPTIMER_GET_FLAG(hrtc, RTC_FLAG_WUTWF) == RESET)
 981:Drivers/STM32F0xx_HAL_Driver/Src/stm32f0xx_hal_rtc_ex.c ****   {
 982:Drivers/STM32F0xx_HAL_Driver/Src/stm32f0xx_hal_rtc_ex.c ****     if((HAL_GetTick()-tickstart) > RTC_TIMEOUT_VALUE)
 983:Drivers/STM32F0xx_HAL_Driver/Src/stm32f0xx_hal_rtc_ex.c ****     {
 984:Drivers/STM32F0xx_HAL_Driver/Src/stm32f0xx_hal_rtc_ex.c ****       /* Enable the write protection for RTC registers */
 985:Drivers/STM32F0xx_HAL_Driver/Src/stm32f0xx_hal_rtc_ex.c ****       __HAL_RTC_WRITEPROTECTION_ENABLE(hrtc);
 986:Drivers/STM32F0xx_HAL_Driver/Src/stm32f0xx_hal_rtc_ex.c **** 
 987:Drivers/STM32F0xx_HAL_Driver/Src/stm32f0xx_hal_rtc_ex.c ****       hrtc->State = HAL_RTC_STATE_TIMEOUT;
 988:Drivers/STM32F0xx_HAL_Driver/Src/stm32f0xx_hal_rtc_ex.c **** 
 989:Drivers/STM32F0xx_HAL_Driver/Src/stm32f0xx_hal_rtc_ex.c ****       /* Process Unlocked */
 990:Drivers/STM32F0xx_HAL_Driver/Src/stm32f0xx_hal_rtc_ex.c ****       __HAL_UNLOCK(hrtc);
 991:Drivers/STM32F0xx_HAL_Driver/Src/stm32f0xx_hal_rtc_ex.c **** 
 992:Drivers/STM32F0xx_HAL_Driver/Src/stm32f0xx_hal_rtc_ex.c ****       return HAL_TIMEOUT;
 993:Drivers/STM32F0xx_HAL_Driver/Src/stm32f0xx_hal_rtc_ex.c ****     }
 994:Drivers/STM32F0xx_HAL_Driver/Src/stm32f0xx_hal_rtc_ex.c ****   }
 995:Drivers/STM32F0xx_HAL_Driver/Src/stm32f0xx_hal_rtc_ex.c **** 
 996:Drivers/STM32F0xx_HAL_Driver/Src/stm32f0xx_hal_rtc_ex.c ****   /* Enable the write protection for RTC registers */
 997:Drivers/STM32F0xx_HAL_Driver/Src/stm32f0xx_hal_rtc_ex.c ****   __HAL_RTC_WRITEPROTECTION_ENABLE(hrtc);
 998:Drivers/STM32F0xx_HAL_Driver/Src/stm32f0xx_hal_rtc_ex.c **** 
 999:Drivers/STM32F0xx_HAL_Driver/Src/stm32f0xx_hal_rtc_ex.c ****   hrtc->State = HAL_RTC_STATE_READY;
1000:Drivers/STM32F0xx_HAL_Driver/Src/stm32f0xx_hal_rtc_ex.c **** 
1001:Drivers/STM32F0xx_HAL_Driver/Src/stm32f0xx_hal_rtc_ex.c ****   /* Process Unlocked */
1002:Drivers/STM32F0xx_HAL_Driver/Src/stm32f0xx_hal_rtc_ex.c ****   __HAL_UNLOCK(hrtc);
1003:Drivers/STM32F0xx_HAL_Driver/Src/stm32f0xx_hal_rtc_ex.c **** 
1004:Drivers/STM32F0xx_HAL_Driver/Src/stm32f0xx_hal_rtc_ex.c ****   return HAL_OK;
1005:Drivers/STM32F0xx_HAL_Driver/Src/stm32f0xx_hal_rtc_ex.c **** }
1006:Drivers/STM32F0xx_HAL_Driver/Src/stm32f0xx_hal_rtc_ex.c **** 
1007:Drivers/STM32F0xx_HAL_Driver/Src/stm32f0xx_hal_rtc_ex.c **** /**
1008:Drivers/STM32F0xx_HAL_Driver/Src/stm32f0xx_hal_rtc_ex.c ****   * @brief  Get wake up timer counter.
1009:Drivers/STM32F0xx_HAL_Driver/Src/stm32f0xx_hal_rtc_ex.c ****   * @param  hrtc RTC handle 
1010:Drivers/STM32F0xx_HAL_Driver/Src/stm32f0xx_hal_rtc_ex.c ****   * @retval Counter value
1011:Drivers/STM32F0xx_HAL_Driver/Src/stm32f0xx_hal_rtc_ex.c ****   */
1012:Drivers/STM32F0xx_HAL_Driver/Src/stm32f0xx_hal_rtc_ex.c **** uint32_t HAL_RTCEx_GetWakeUpTimer(RTC_HandleTypeDef *hrtc)
1013:Drivers/STM32F0xx_HAL_Driver/Src/stm32f0xx_hal_rtc_ex.c **** {
1014:Drivers/STM32F0xx_HAL_Driver/Src/stm32f0xx_hal_rtc_ex.c ****   /* Get the counter value */
1015:Drivers/STM32F0xx_HAL_Driver/Src/stm32f0xx_hal_rtc_ex.c ****   return ((uint32_t)(hrtc->Instance->WUTR & RTC_WUTR_WUT));
1016:Drivers/STM32F0xx_HAL_Driver/Src/stm32f0xx_hal_rtc_ex.c **** }
1017:Drivers/STM32F0xx_HAL_Driver/Src/stm32f0xx_hal_rtc_ex.c **** 
1018:Drivers/STM32F0xx_HAL_Driver/Src/stm32f0xx_hal_rtc_ex.c **** /**
1019:Drivers/STM32F0xx_HAL_Driver/Src/stm32f0xx_hal_rtc_ex.c ****   * @brief  Handle Wake Up Timer interrupt request.
1020:Drivers/STM32F0xx_HAL_Driver/Src/stm32f0xx_hal_rtc_ex.c ****   * @param  hrtc RTC handle
1021:Drivers/STM32F0xx_HAL_Driver/Src/stm32f0xx_hal_rtc_ex.c ****   * @retval None
1022:Drivers/STM32F0xx_HAL_Driver/Src/stm32f0xx_hal_rtc_ex.c ****   */
1023:Drivers/STM32F0xx_HAL_Driver/Src/stm32f0xx_hal_rtc_ex.c **** void HAL_RTCEx_WakeUpTimerIRQHandler(RTC_HandleTypeDef *hrtc)
1024:Drivers/STM32F0xx_HAL_Driver/Src/stm32f0xx_hal_rtc_ex.c **** {
1025:Drivers/STM32F0xx_HAL_Driver/Src/stm32f0xx_hal_rtc_ex.c ****   /* Get the WAKEUPTIMER interrupt source enable status */
1026:Drivers/STM32F0xx_HAL_Driver/Src/stm32f0xx_hal_rtc_ex.c ****   if(__HAL_RTC_WAKEUPTIMER_GET_IT_SOURCE(hrtc, RTC_IT_WUT) != RESET)
1027:Drivers/STM32F0xx_HAL_Driver/Src/stm32f0xx_hal_rtc_ex.c ****   {
1028:Drivers/STM32F0xx_HAL_Driver/Src/stm32f0xx_hal_rtc_ex.c ****    /* Get the pending status of the WAKEUPTIMER Interrupt */
1029:Drivers/STM32F0xx_HAL_Driver/Src/stm32f0xx_hal_rtc_ex.c ****     if(__HAL_RTC_WAKEUPTIMER_GET_FLAG(hrtc, RTC_FLAG_WUTF) != RESET)
1030:Drivers/STM32F0xx_HAL_Driver/Src/stm32f0xx_hal_rtc_ex.c ****     {
1031:Drivers/STM32F0xx_HAL_Driver/Src/stm32f0xx_hal_rtc_ex.c ****       /* WAKEUPTIMER callback */ 
1032:Drivers/STM32F0xx_HAL_Driver/Src/stm32f0xx_hal_rtc_ex.c ****       HAL_RTCEx_WakeUpTimerEventCallback(hrtc);
1033:Drivers/STM32F0xx_HAL_Driver/Src/stm32f0xx_hal_rtc_ex.c ****       
1034:Drivers/STM32F0xx_HAL_Driver/Src/stm32f0xx_hal_rtc_ex.c ****       /* Clear the WAKEUPTIMER interrupt pending bit */
1035:Drivers/STM32F0xx_HAL_Driver/Src/stm32f0xx_hal_rtc_ex.c ****       __HAL_RTC_WAKEUPTIMER_CLEAR_FLAG(hrtc, RTC_FLAG_WUTF);
1036:Drivers/STM32F0xx_HAL_Driver/Src/stm32f0xx_hal_rtc_ex.c ****     }
ARM GAS  /tmp/cc3tXaRV.s 			page 40


1037:Drivers/STM32F0xx_HAL_Driver/Src/stm32f0xx_hal_rtc_ex.c ****   }
1038:Drivers/STM32F0xx_HAL_Driver/Src/stm32f0xx_hal_rtc_ex.c **** 
1039:Drivers/STM32F0xx_HAL_Driver/Src/stm32f0xx_hal_rtc_ex.c ****   /* Clear the EXTI's line Flag for RTC WakeUpTimer */
1040:Drivers/STM32F0xx_HAL_Driver/Src/stm32f0xx_hal_rtc_ex.c ****   __HAL_RTC_WAKEUPTIMER_EXTI_CLEAR_FLAG();
1041:Drivers/STM32F0xx_HAL_Driver/Src/stm32f0xx_hal_rtc_ex.c ****   
1042:Drivers/STM32F0xx_HAL_Driver/Src/stm32f0xx_hal_rtc_ex.c ****   /* Change RTC state */
1043:Drivers/STM32F0xx_HAL_Driver/Src/stm32f0xx_hal_rtc_ex.c ****   hrtc->State = HAL_RTC_STATE_READY;
1044:Drivers/STM32F0xx_HAL_Driver/Src/stm32f0xx_hal_rtc_ex.c **** }
1045:Drivers/STM32F0xx_HAL_Driver/Src/stm32f0xx_hal_rtc_ex.c **** 
1046:Drivers/STM32F0xx_HAL_Driver/Src/stm32f0xx_hal_rtc_ex.c **** /**
1047:Drivers/STM32F0xx_HAL_Driver/Src/stm32f0xx_hal_rtc_ex.c ****   * @brief  Wake Up Timer callback.
1048:Drivers/STM32F0xx_HAL_Driver/Src/stm32f0xx_hal_rtc_ex.c ****   * @param  hrtc RTC handle
1049:Drivers/STM32F0xx_HAL_Driver/Src/stm32f0xx_hal_rtc_ex.c ****   * @retval None
1050:Drivers/STM32F0xx_HAL_Driver/Src/stm32f0xx_hal_rtc_ex.c ****   */
1051:Drivers/STM32F0xx_HAL_Driver/Src/stm32f0xx_hal_rtc_ex.c **** __weak void HAL_RTCEx_WakeUpTimerEventCallback(RTC_HandleTypeDef *hrtc)
1052:Drivers/STM32F0xx_HAL_Driver/Src/stm32f0xx_hal_rtc_ex.c **** {
1053:Drivers/STM32F0xx_HAL_Driver/Src/stm32f0xx_hal_rtc_ex.c ****   /* Prevent unused argument(s) compilation warning */
1054:Drivers/STM32F0xx_HAL_Driver/Src/stm32f0xx_hal_rtc_ex.c ****   UNUSED(hrtc);
1055:Drivers/STM32F0xx_HAL_Driver/Src/stm32f0xx_hal_rtc_ex.c **** 
1056:Drivers/STM32F0xx_HAL_Driver/Src/stm32f0xx_hal_rtc_ex.c ****   /* NOTE : This function should not be modified, when the callback is needed,
1057:Drivers/STM32F0xx_HAL_Driver/Src/stm32f0xx_hal_rtc_ex.c ****             the HAL_RTCEx_WakeUpTimerEventCallback could be implemented in the user file
1058:Drivers/STM32F0xx_HAL_Driver/Src/stm32f0xx_hal_rtc_ex.c ****    */
1059:Drivers/STM32F0xx_HAL_Driver/Src/stm32f0xx_hal_rtc_ex.c **** }
1060:Drivers/STM32F0xx_HAL_Driver/Src/stm32f0xx_hal_rtc_ex.c **** 
1061:Drivers/STM32F0xx_HAL_Driver/Src/stm32f0xx_hal_rtc_ex.c **** 
1062:Drivers/STM32F0xx_HAL_Driver/Src/stm32f0xx_hal_rtc_ex.c **** /**
1063:Drivers/STM32F0xx_HAL_Driver/Src/stm32f0xx_hal_rtc_ex.c ****   * @brief  Handle Wake Up Timer Polling.
1064:Drivers/STM32F0xx_HAL_Driver/Src/stm32f0xx_hal_rtc_ex.c ****   * @param  hrtc RTC handle
1065:Drivers/STM32F0xx_HAL_Driver/Src/stm32f0xx_hal_rtc_ex.c ****   * @param  Timeout Timeout duration
1066:Drivers/STM32F0xx_HAL_Driver/Src/stm32f0xx_hal_rtc_ex.c ****   * @retval HAL status
1067:Drivers/STM32F0xx_HAL_Driver/Src/stm32f0xx_hal_rtc_ex.c ****   */
1068:Drivers/STM32F0xx_HAL_Driver/Src/stm32f0xx_hal_rtc_ex.c **** HAL_StatusTypeDef HAL_RTCEx_PollForWakeUpTimerEvent(RTC_HandleTypeDef *hrtc, uint32_t Timeout)
1069:Drivers/STM32F0xx_HAL_Driver/Src/stm32f0xx_hal_rtc_ex.c **** {
1070:Drivers/STM32F0xx_HAL_Driver/Src/stm32f0xx_hal_rtc_ex.c ****   uint32_t tickstart = HAL_GetTick();
1071:Drivers/STM32F0xx_HAL_Driver/Src/stm32f0xx_hal_rtc_ex.c **** 
1072:Drivers/STM32F0xx_HAL_Driver/Src/stm32f0xx_hal_rtc_ex.c ****   while(__HAL_RTC_WAKEUPTIMER_GET_FLAG(hrtc, RTC_FLAG_WUTF) == RESET)
1073:Drivers/STM32F0xx_HAL_Driver/Src/stm32f0xx_hal_rtc_ex.c ****   {
1074:Drivers/STM32F0xx_HAL_Driver/Src/stm32f0xx_hal_rtc_ex.c ****     if(Timeout != HAL_MAX_DELAY)
1075:Drivers/STM32F0xx_HAL_Driver/Src/stm32f0xx_hal_rtc_ex.c ****     {
1076:Drivers/STM32F0xx_HAL_Driver/Src/stm32f0xx_hal_rtc_ex.c ****       if((Timeout == 0U)||((HAL_GetTick() - tickstart ) > Timeout))
1077:Drivers/STM32F0xx_HAL_Driver/Src/stm32f0xx_hal_rtc_ex.c ****       {
1078:Drivers/STM32F0xx_HAL_Driver/Src/stm32f0xx_hal_rtc_ex.c ****         hrtc->State = HAL_RTC_STATE_TIMEOUT;
1079:Drivers/STM32F0xx_HAL_Driver/Src/stm32f0xx_hal_rtc_ex.c ****       
1080:Drivers/STM32F0xx_HAL_Driver/Src/stm32f0xx_hal_rtc_ex.c ****         return HAL_TIMEOUT;
1081:Drivers/STM32F0xx_HAL_Driver/Src/stm32f0xx_hal_rtc_ex.c ****       }
1082:Drivers/STM32F0xx_HAL_Driver/Src/stm32f0xx_hal_rtc_ex.c ****     }
1083:Drivers/STM32F0xx_HAL_Driver/Src/stm32f0xx_hal_rtc_ex.c ****   }
1084:Drivers/STM32F0xx_HAL_Driver/Src/stm32f0xx_hal_rtc_ex.c **** 
1085:Drivers/STM32F0xx_HAL_Driver/Src/stm32f0xx_hal_rtc_ex.c ****   /* Clear the WAKEUPTIMER Flag */
1086:Drivers/STM32F0xx_HAL_Driver/Src/stm32f0xx_hal_rtc_ex.c ****   __HAL_RTC_WAKEUPTIMER_CLEAR_FLAG(hrtc, RTC_FLAG_WUTF);
1087:Drivers/STM32F0xx_HAL_Driver/Src/stm32f0xx_hal_rtc_ex.c ****   
1088:Drivers/STM32F0xx_HAL_Driver/Src/stm32f0xx_hal_rtc_ex.c ****   /* Change RTC state */
1089:Drivers/STM32F0xx_HAL_Driver/Src/stm32f0xx_hal_rtc_ex.c ****   hrtc->State = HAL_RTC_STATE_READY;
1090:Drivers/STM32F0xx_HAL_Driver/Src/stm32f0xx_hal_rtc_ex.c **** 
1091:Drivers/STM32F0xx_HAL_Driver/Src/stm32f0xx_hal_rtc_ex.c ****   return HAL_OK;
1092:Drivers/STM32F0xx_HAL_Driver/Src/stm32f0xx_hal_rtc_ex.c **** }
1093:Drivers/STM32F0xx_HAL_Driver/Src/stm32f0xx_hal_rtc_ex.c **** 
ARM GAS  /tmp/cc3tXaRV.s 			page 41


1094:Drivers/STM32F0xx_HAL_Driver/Src/stm32f0xx_hal_rtc_ex.c **** /**
1095:Drivers/STM32F0xx_HAL_Driver/Src/stm32f0xx_hal_rtc_ex.c ****   * @}
1096:Drivers/STM32F0xx_HAL_Driver/Src/stm32f0xx_hal_rtc_ex.c ****   */
1097:Drivers/STM32F0xx_HAL_Driver/Src/stm32f0xx_hal_rtc_ex.c **** #endif /* defined(STM32F070xB) || defined(STM32F071xB) || defined(STM32F072xB) || defined(STM32F078
1098:Drivers/STM32F0xx_HAL_Driver/Src/stm32f0xx_hal_rtc_ex.c **** 
1099:Drivers/STM32F0xx_HAL_Driver/Src/stm32f0xx_hal_rtc_ex.c **** /** @addtogroup RTCEx_Exported_Functions_Group3
1100:Drivers/STM32F0xx_HAL_Driver/Src/stm32f0xx_hal_rtc_ex.c ****   * @brief    Extended Peripheral Control functions
1101:Drivers/STM32F0xx_HAL_Driver/Src/stm32f0xx_hal_rtc_ex.c ****   *
1102:Drivers/STM32F0xx_HAL_Driver/Src/stm32f0xx_hal_rtc_ex.c **** @verbatim   
1103:Drivers/STM32F0xx_HAL_Driver/Src/stm32f0xx_hal_rtc_ex.c ****  ===============================================================================
1104:Drivers/STM32F0xx_HAL_Driver/Src/stm32f0xx_hal_rtc_ex.c ****               ##### Extended Peripheral Control functions #####
1105:Drivers/STM32F0xx_HAL_Driver/Src/stm32f0xx_hal_rtc_ex.c ****  ===============================================================================  
1106:Drivers/STM32F0xx_HAL_Driver/Src/stm32f0xx_hal_rtc_ex.c ****     [..]
1107:Drivers/STM32F0xx_HAL_Driver/Src/stm32f0xx_hal_rtc_ex.c ****     This subsection provides functions allowing to
1108:Drivers/STM32F0xx_HAL_Driver/Src/stm32f0xx_hal_rtc_ex.c ****       (+) Write a data in a specified RTC Backup data register
1109:Drivers/STM32F0xx_HAL_Driver/Src/stm32f0xx_hal_rtc_ex.c ****       (+) Read a data in a specified RTC Backup data register
1110:Drivers/STM32F0xx_HAL_Driver/Src/stm32f0xx_hal_rtc_ex.c ****       (+) Set the Coarse calibration parameters.
1111:Drivers/STM32F0xx_HAL_Driver/Src/stm32f0xx_hal_rtc_ex.c ****       (+) Deactivate the Coarse calibration parameters
1112:Drivers/STM32F0xx_HAL_Driver/Src/stm32f0xx_hal_rtc_ex.c ****       (+) Set the Smooth calibration parameters.
1113:Drivers/STM32F0xx_HAL_Driver/Src/stm32f0xx_hal_rtc_ex.c ****       (+) Configure the Synchronization Shift Control Settings.
1114:Drivers/STM32F0xx_HAL_Driver/Src/stm32f0xx_hal_rtc_ex.c ****       (+) Configure the Calibration Pinout (RTC_CALIB) Selection (1Hz or 512Hz).
1115:Drivers/STM32F0xx_HAL_Driver/Src/stm32f0xx_hal_rtc_ex.c ****       (+) Deactivate the Calibration Pinout (RTC_CALIB) Selection (1Hz or 512Hz).
1116:Drivers/STM32F0xx_HAL_Driver/Src/stm32f0xx_hal_rtc_ex.c ****       (+) Enable the RTC reference clock detection.
1117:Drivers/STM32F0xx_HAL_Driver/Src/stm32f0xx_hal_rtc_ex.c ****       (+) Disable the RTC reference clock detection.
1118:Drivers/STM32F0xx_HAL_Driver/Src/stm32f0xx_hal_rtc_ex.c ****       (+) Enable the Bypass Shadow feature.
1119:Drivers/STM32F0xx_HAL_Driver/Src/stm32f0xx_hal_rtc_ex.c ****       (+) Disable the Bypass Shadow feature.
1120:Drivers/STM32F0xx_HAL_Driver/Src/stm32f0xx_hal_rtc_ex.c **** 
1121:Drivers/STM32F0xx_HAL_Driver/Src/stm32f0xx_hal_rtc_ex.c **** @endverbatim
1122:Drivers/STM32F0xx_HAL_Driver/Src/stm32f0xx_hal_rtc_ex.c ****   * @{
1123:Drivers/STM32F0xx_HAL_Driver/Src/stm32f0xx_hal_rtc_ex.c ****   */
1124:Drivers/STM32F0xx_HAL_Driver/Src/stm32f0xx_hal_rtc_ex.c **** 
1125:Drivers/STM32F0xx_HAL_Driver/Src/stm32f0xx_hal_rtc_ex.c **** #if !defined(STM32F030x6) && !defined(STM32F030x8) && !defined(STM32F070x6) && !defined(STM32F070xB
1126:Drivers/STM32F0xx_HAL_Driver/Src/stm32f0xx_hal_rtc_ex.c **** /**
1127:Drivers/STM32F0xx_HAL_Driver/Src/stm32f0xx_hal_rtc_ex.c ****   * @brief  Write a data in a specified RTC Backup data register.
1128:Drivers/STM32F0xx_HAL_Driver/Src/stm32f0xx_hal_rtc_ex.c ****   * @param  hrtc RTC handle 
1129:Drivers/STM32F0xx_HAL_Driver/Src/stm32f0xx_hal_rtc_ex.c ****   * @param  BackupRegister RTC Backup data Register number.
1130:Drivers/STM32F0xx_HAL_Driver/Src/stm32f0xx_hal_rtc_ex.c ****   *          This parameter can be: RTC_BKP_DRx where x can be from 0 to 4 to 
1131:Drivers/STM32F0xx_HAL_Driver/Src/stm32f0xx_hal_rtc_ex.c ****   *                                 specify the register.
1132:Drivers/STM32F0xx_HAL_Driver/Src/stm32f0xx_hal_rtc_ex.c ****   * @param  Data Data to be written in the specified RTC Backup data register.                     
1133:Drivers/STM32F0xx_HAL_Driver/Src/stm32f0xx_hal_rtc_ex.c ****   * @retval None
1134:Drivers/STM32F0xx_HAL_Driver/Src/stm32f0xx_hal_rtc_ex.c ****   */
1135:Drivers/STM32F0xx_HAL_Driver/Src/stm32f0xx_hal_rtc_ex.c **** void HAL_RTCEx_BKUPWrite(RTC_HandleTypeDef *hrtc, uint32_t BackupRegister, uint32_t Data)
1136:Drivers/STM32F0xx_HAL_Driver/Src/stm32f0xx_hal_rtc_ex.c **** {
1137:Drivers/STM32F0xx_HAL_Driver/Src/stm32f0xx_hal_rtc_ex.c ****   uint32_t tmp = 0U;
1138:Drivers/STM32F0xx_HAL_Driver/Src/stm32f0xx_hal_rtc_ex.c **** 
1139:Drivers/STM32F0xx_HAL_Driver/Src/stm32f0xx_hal_rtc_ex.c ****   /* Check the parameters */
1140:Drivers/STM32F0xx_HAL_Driver/Src/stm32f0xx_hal_rtc_ex.c ****   assert_param(IS_RTC_BKP(BackupRegister));
1141:Drivers/STM32F0xx_HAL_Driver/Src/stm32f0xx_hal_rtc_ex.c **** 
1142:Drivers/STM32F0xx_HAL_Driver/Src/stm32f0xx_hal_rtc_ex.c ****   tmp = (uint32_t)&(hrtc->Instance->BKP0R);
1143:Drivers/STM32F0xx_HAL_Driver/Src/stm32f0xx_hal_rtc_ex.c ****   tmp += (BackupRegister * 4U);
1144:Drivers/STM32F0xx_HAL_Driver/Src/stm32f0xx_hal_rtc_ex.c **** 
1145:Drivers/STM32F0xx_HAL_Driver/Src/stm32f0xx_hal_rtc_ex.c ****   /* Write the specified register */
1146:Drivers/STM32F0xx_HAL_Driver/Src/stm32f0xx_hal_rtc_ex.c ****   *(__IO uint32_t *)tmp = (uint32_t)Data;
1147:Drivers/STM32F0xx_HAL_Driver/Src/stm32f0xx_hal_rtc_ex.c **** }
1148:Drivers/STM32F0xx_HAL_Driver/Src/stm32f0xx_hal_rtc_ex.c **** 
1149:Drivers/STM32F0xx_HAL_Driver/Src/stm32f0xx_hal_rtc_ex.c **** /**
1150:Drivers/STM32F0xx_HAL_Driver/Src/stm32f0xx_hal_rtc_ex.c ****   * @brief  Reads data from the specified RTC Backup data Register.
ARM GAS  /tmp/cc3tXaRV.s 			page 42


1151:Drivers/STM32F0xx_HAL_Driver/Src/stm32f0xx_hal_rtc_ex.c ****   * @param  hrtc RTC handle 
1152:Drivers/STM32F0xx_HAL_Driver/Src/stm32f0xx_hal_rtc_ex.c ****   * @param  BackupRegister RTC Backup data Register number.
1153:Drivers/STM32F0xx_HAL_Driver/Src/stm32f0xx_hal_rtc_ex.c ****   *          This parameter can be: RTC_BKP_DRx where x can be from 0 to 4 to 
1154:Drivers/STM32F0xx_HAL_Driver/Src/stm32f0xx_hal_rtc_ex.c ****   *                                 specify the register.                   
1155:Drivers/STM32F0xx_HAL_Driver/Src/stm32f0xx_hal_rtc_ex.c ****   * @retval Read value
1156:Drivers/STM32F0xx_HAL_Driver/Src/stm32f0xx_hal_rtc_ex.c ****   */
1157:Drivers/STM32F0xx_HAL_Driver/Src/stm32f0xx_hal_rtc_ex.c **** uint32_t HAL_RTCEx_BKUPRead(RTC_HandleTypeDef *hrtc, uint32_t BackupRegister)
1158:Drivers/STM32F0xx_HAL_Driver/Src/stm32f0xx_hal_rtc_ex.c **** {
1159:Drivers/STM32F0xx_HAL_Driver/Src/stm32f0xx_hal_rtc_ex.c ****   uint32_t tmp = 0U;
1160:Drivers/STM32F0xx_HAL_Driver/Src/stm32f0xx_hal_rtc_ex.c **** 
1161:Drivers/STM32F0xx_HAL_Driver/Src/stm32f0xx_hal_rtc_ex.c ****   /* Check the parameters */
1162:Drivers/STM32F0xx_HAL_Driver/Src/stm32f0xx_hal_rtc_ex.c ****   assert_param(IS_RTC_BKP(BackupRegister));
1163:Drivers/STM32F0xx_HAL_Driver/Src/stm32f0xx_hal_rtc_ex.c **** 
1164:Drivers/STM32F0xx_HAL_Driver/Src/stm32f0xx_hal_rtc_ex.c ****   tmp = (uint32_t)&(hrtc->Instance->BKP0R);
1165:Drivers/STM32F0xx_HAL_Driver/Src/stm32f0xx_hal_rtc_ex.c ****   tmp += (BackupRegister * 4U);
1166:Drivers/STM32F0xx_HAL_Driver/Src/stm32f0xx_hal_rtc_ex.c ****   
1167:Drivers/STM32F0xx_HAL_Driver/Src/stm32f0xx_hal_rtc_ex.c ****   /* Read the specified register */
1168:Drivers/STM32F0xx_HAL_Driver/Src/stm32f0xx_hal_rtc_ex.c ****   return (*(__IO uint32_t *)tmp);
1169:Drivers/STM32F0xx_HAL_Driver/Src/stm32f0xx_hal_rtc_ex.c **** }
1170:Drivers/STM32F0xx_HAL_Driver/Src/stm32f0xx_hal_rtc_ex.c **** #endif /* !defined(STM32F030x6) && !defined(STM32F030x8) && !defined(STM32F070x6) && !defined(STM32
1171:Drivers/STM32F0xx_HAL_Driver/Src/stm32f0xx_hal_rtc_ex.c **** 
1172:Drivers/STM32F0xx_HAL_Driver/Src/stm32f0xx_hal_rtc_ex.c **** /**
1173:Drivers/STM32F0xx_HAL_Driver/Src/stm32f0xx_hal_rtc_ex.c ****   * @brief  Set the Smooth calibration parameters.
1174:Drivers/STM32F0xx_HAL_Driver/Src/stm32f0xx_hal_rtc_ex.c ****   * @param  hrtc RTC handle  
1175:Drivers/STM32F0xx_HAL_Driver/Src/stm32f0xx_hal_rtc_ex.c ****   * @param  SmoothCalibPeriod Select the Smooth Calibration Period.
1176:Drivers/STM32F0xx_HAL_Driver/Src/stm32f0xx_hal_rtc_ex.c ****   *          This parameter can be can be one of the following values :
1177:Drivers/STM32F0xx_HAL_Driver/Src/stm32f0xx_hal_rtc_ex.c ****   *             @arg RTC_SMOOTHCALIB_PERIOD_32SEC: The smooth calibration period is 32s.
1178:Drivers/STM32F0xx_HAL_Driver/Src/stm32f0xx_hal_rtc_ex.c ****   *             @arg RTC_SMOOTHCALIB_PERIOD_16SEC: The smooth calibration period is 16s.
1179:Drivers/STM32F0xx_HAL_Driver/Src/stm32f0xx_hal_rtc_ex.c ****   *             @arg RTC_SMOOTHCALIB_PERIOD_8SEC: The smooth calibration period is 8s.
1180:Drivers/STM32F0xx_HAL_Driver/Src/stm32f0xx_hal_rtc_ex.c ****   * @param  SmoothCalibPlusPulses Select to Set or reset the CALP bit.
1181:Drivers/STM32F0xx_HAL_Driver/Src/stm32f0xx_hal_rtc_ex.c ****   *          This parameter can be one of the following values:
1182:Drivers/STM32F0xx_HAL_Driver/Src/stm32f0xx_hal_rtc_ex.c ****   *             @arg RTC_SMOOTHCALIB_PLUSPULSES_SET: Add one RTCCLK pulse every 2*11 pulses.
1183:Drivers/STM32F0xx_HAL_Driver/Src/stm32f0xx_hal_rtc_ex.c ****   *             @arg RTC_SMOOTHCALIB_PLUSPULSES_RESET: No RTCCLK pulses are added.
1184:Drivers/STM32F0xx_HAL_Driver/Src/stm32f0xx_hal_rtc_ex.c ****   * @param  SmoothCalibMinusPulsesValue Select the value of CALM[8:0] bits.
1185:Drivers/STM32F0xx_HAL_Driver/Src/stm32f0xx_hal_rtc_ex.c ****   *          This parameter can be one any value from 0 to 0x000001FF.
1186:Drivers/STM32F0xx_HAL_Driver/Src/stm32f0xx_hal_rtc_ex.c ****   * @note   To deactivate the smooth calibration, the field SmoothCalibPlusPulses 
1187:Drivers/STM32F0xx_HAL_Driver/Src/stm32f0xx_hal_rtc_ex.c ****   *         must be equal to SMOOTHCALIB_PLUSPULSES_RESET and the field
1188:Drivers/STM32F0xx_HAL_Driver/Src/stm32f0xx_hal_rtc_ex.c ****   *         SmoothCalibMinusPulsesValue mut be equal to 0.
1189:Drivers/STM32F0xx_HAL_Driver/Src/stm32f0xx_hal_rtc_ex.c ****   * @retval HAL status
1190:Drivers/STM32F0xx_HAL_Driver/Src/stm32f0xx_hal_rtc_ex.c ****   */
1191:Drivers/STM32F0xx_HAL_Driver/Src/stm32f0xx_hal_rtc_ex.c **** HAL_StatusTypeDef HAL_RTCEx_SetSmoothCalib(RTC_HandleTypeDef* hrtc, uint32_t SmoothCalibPeriod, uin
1192:Drivers/STM32F0xx_HAL_Driver/Src/stm32f0xx_hal_rtc_ex.c **** {
 1182              		.loc 1 1192 0
 1183              		.cfi_startproc
 1184              		@ args = 0, pretend = 0, frame = 8
 1185              		@ frame_needed = 0, uses_anonymous_args = 0
 1186              	.LVL100:
 1187 0000 F0B5     		push	{r4, r5, r6, r7, lr}
 1188              	.LCFI12:
 1189              		.cfi_def_cfa_offset 20
 1190              		.cfi_offset 4, -20
 1191              		.cfi_offset 5, -16
 1192              		.cfi_offset 6, -12
 1193              		.cfi_offset 7, -8
 1194              		.cfi_offset 14, -4
 1195 0002 83B0     		sub	sp, sp, #12
 1196              	.LCFI13:
ARM GAS  /tmp/cc3tXaRV.s 			page 43


 1197              		.cfi_def_cfa_offset 32
 1198 0004 0400     		movs	r4, r0
 1199 0006 0D00     		movs	r5, r1
 1200 0008 0192     		str	r2, [sp, #4]
 1201 000a 1E00     		movs	r6, r3
 1202              	.LVL101:
1193:Drivers/STM32F0xx_HAL_Driver/Src/stm32f0xx_hal_rtc_ex.c ****   uint32_t tickstart = 0U;
1194:Drivers/STM32F0xx_HAL_Driver/Src/stm32f0xx_hal_rtc_ex.c **** 
1195:Drivers/STM32F0xx_HAL_Driver/Src/stm32f0xx_hal_rtc_ex.c ****   /* Check the parameters */
1196:Drivers/STM32F0xx_HAL_Driver/Src/stm32f0xx_hal_rtc_ex.c ****   assert_param(IS_RTC_SMOOTH_CALIB_PERIOD(SmoothCalibPeriod));
1197:Drivers/STM32F0xx_HAL_Driver/Src/stm32f0xx_hal_rtc_ex.c ****   assert_param(IS_RTC_SMOOTH_CALIB_PLUS(SmoothCalibPlusPulses));
1198:Drivers/STM32F0xx_HAL_Driver/Src/stm32f0xx_hal_rtc_ex.c ****   assert_param(IS_RTC_SMOOTH_CALIB_MINUS(SmoothCalibMinusPulsesValue));
1199:Drivers/STM32F0xx_HAL_Driver/Src/stm32f0xx_hal_rtc_ex.c **** 
1200:Drivers/STM32F0xx_HAL_Driver/Src/stm32f0xx_hal_rtc_ex.c ****   /* Process Locked */
1201:Drivers/STM32F0xx_HAL_Driver/Src/stm32f0xx_hal_rtc_ex.c ****   __HAL_LOCK(hrtc);
 1203              		.loc 1 1201 0
 1204 000c 037F     		ldrb	r3, [r0, #28]
 1205              	.LVL102:
 1206 000e 012B     		cmp	r3, #1
 1207 0010 33D0     		beq	.L82
 1208              		.loc 1 1201 0 is_stmt 0 discriminator 2
 1209 0012 0123     		movs	r3, #1
 1210 0014 0377     		strb	r3, [r0, #28]
1202:Drivers/STM32F0xx_HAL_Driver/Src/stm32f0xx_hal_rtc_ex.c **** 
1203:Drivers/STM32F0xx_HAL_Driver/Src/stm32f0xx_hal_rtc_ex.c ****   hrtc->State = HAL_RTC_STATE_BUSY;
 1211              		.loc 1 1203 0 is_stmt 1 discriminator 2
 1212 0016 0133     		adds	r3, r3, #1
 1213 0018 4377     		strb	r3, [r0, #29]
1204:Drivers/STM32F0xx_HAL_Driver/Src/stm32f0xx_hal_rtc_ex.c **** 
1205:Drivers/STM32F0xx_HAL_Driver/Src/stm32f0xx_hal_rtc_ex.c ****   /* Disable the write protection for RTC registers */
1206:Drivers/STM32F0xx_HAL_Driver/Src/stm32f0xx_hal_rtc_ex.c ****   __HAL_RTC_WRITEPROTECTION_DISABLE(hrtc);
 1214              		.loc 1 1206 0 discriminator 2
 1215 001a 0368     		ldr	r3, [r0]
 1216 001c CA22     		movs	r2, #202
 1217              	.LVL103:
 1218 001e 5A62     		str	r2, [r3, #36]
 1219 0020 0368     		ldr	r3, [r0]
 1220 0022 773A     		subs	r2, r2, #119
 1221 0024 5A62     		str	r2, [r3, #36]
1207:Drivers/STM32F0xx_HAL_Driver/Src/stm32f0xx_hal_rtc_ex.c **** 
1208:Drivers/STM32F0xx_HAL_Driver/Src/stm32f0xx_hal_rtc_ex.c ****   /* check if a calibration is pending*/
1209:Drivers/STM32F0xx_HAL_Driver/Src/stm32f0xx_hal_rtc_ex.c ****   if((hrtc->Instance->ISR & RTC_ISR_RECALPF) != RESET)
 1222              		.loc 1 1209 0 discriminator 2
 1223 0026 0368     		ldr	r3, [r0]
 1224 0028 DB68     		ldr	r3, [r3, #12]
 1225 002a DB03     		lsls	r3, r3, #15
 1226 002c 0ED4     		bmi	.L83
 1227              	.LVL104:
 1228              	.L79:
1210:Drivers/STM32F0xx_HAL_Driver/Src/stm32f0xx_hal_rtc_ex.c ****   {
1211:Drivers/STM32F0xx_HAL_Driver/Src/stm32f0xx_hal_rtc_ex.c ****     tickstart = HAL_GetTick();
1212:Drivers/STM32F0xx_HAL_Driver/Src/stm32f0xx_hal_rtc_ex.c **** 
1213:Drivers/STM32F0xx_HAL_Driver/Src/stm32f0xx_hal_rtc_ex.c ****     /* check if a calibration is pending*/
1214:Drivers/STM32F0xx_HAL_Driver/Src/stm32f0xx_hal_rtc_ex.c ****     while((hrtc->Instance->ISR & RTC_ISR_RECALPF) != RESET)
1215:Drivers/STM32F0xx_HAL_Driver/Src/stm32f0xx_hal_rtc_ex.c ****     {
1216:Drivers/STM32F0xx_HAL_Driver/Src/stm32f0xx_hal_rtc_ex.c ****       if((HAL_GetTick()-tickstart) > RTC_TIMEOUT_VALUE)
1217:Drivers/STM32F0xx_HAL_Driver/Src/stm32f0xx_hal_rtc_ex.c ****       {
ARM GAS  /tmp/cc3tXaRV.s 			page 44


1218:Drivers/STM32F0xx_HAL_Driver/Src/stm32f0xx_hal_rtc_ex.c ****         /* Enable the write protection for RTC registers */
1219:Drivers/STM32F0xx_HAL_Driver/Src/stm32f0xx_hal_rtc_ex.c ****         __HAL_RTC_WRITEPROTECTION_ENABLE(hrtc);
1220:Drivers/STM32F0xx_HAL_Driver/Src/stm32f0xx_hal_rtc_ex.c **** 
1221:Drivers/STM32F0xx_HAL_Driver/Src/stm32f0xx_hal_rtc_ex.c ****         /* Change RTC state */
1222:Drivers/STM32F0xx_HAL_Driver/Src/stm32f0xx_hal_rtc_ex.c ****         hrtc->State = HAL_RTC_STATE_TIMEOUT;
1223:Drivers/STM32F0xx_HAL_Driver/Src/stm32f0xx_hal_rtc_ex.c **** 
1224:Drivers/STM32F0xx_HAL_Driver/Src/stm32f0xx_hal_rtc_ex.c ****         /* Process Unlocked */
1225:Drivers/STM32F0xx_HAL_Driver/Src/stm32f0xx_hal_rtc_ex.c ****         __HAL_UNLOCK(hrtc);
1226:Drivers/STM32F0xx_HAL_Driver/Src/stm32f0xx_hal_rtc_ex.c **** 
1227:Drivers/STM32F0xx_HAL_Driver/Src/stm32f0xx_hal_rtc_ex.c ****         return HAL_TIMEOUT;
1228:Drivers/STM32F0xx_HAL_Driver/Src/stm32f0xx_hal_rtc_ex.c ****       }
1229:Drivers/STM32F0xx_HAL_Driver/Src/stm32f0xx_hal_rtc_ex.c ****     }
1230:Drivers/STM32F0xx_HAL_Driver/Src/stm32f0xx_hal_rtc_ex.c ****   }
1231:Drivers/STM32F0xx_HAL_Driver/Src/stm32f0xx_hal_rtc_ex.c **** 
1232:Drivers/STM32F0xx_HAL_Driver/Src/stm32f0xx_hal_rtc_ex.c ****   /* Configure the Smooth calibration settings */
1233:Drivers/STM32F0xx_HAL_Driver/Src/stm32f0xx_hal_rtc_ex.c ****   hrtc->Instance->CALR = (uint32_t)((uint32_t)SmoothCalibPeriod | (uint32_t)SmoothCalibPlusPulses |
 1229              		.loc 1 1233 0
 1230 002e 2368     		ldr	r3, [r4]
 1231 0030 019A     		ldr	r2, [sp, #4]
 1232 0032 1543     		orrs	r5, r2
 1233              	.LVL105:
 1234 0034 2E43     		orrs	r6, r5
 1235              	.LVL106:
 1236 0036 DE63     		str	r6, [r3, #60]
1234:Drivers/STM32F0xx_HAL_Driver/Src/stm32f0xx_hal_rtc_ex.c **** 
1235:Drivers/STM32F0xx_HAL_Driver/Src/stm32f0xx_hal_rtc_ex.c ****   /* Enable the write protection for RTC registers */
1236:Drivers/STM32F0xx_HAL_Driver/Src/stm32f0xx_hal_rtc_ex.c ****   __HAL_RTC_WRITEPROTECTION_ENABLE(hrtc);
 1237              		.loc 1 1236 0
 1238 0038 2368     		ldr	r3, [r4]
 1239 003a FF22     		movs	r2, #255
 1240 003c 5A62     		str	r2, [r3, #36]
1237:Drivers/STM32F0xx_HAL_Driver/Src/stm32f0xx_hal_rtc_ex.c **** 
1238:Drivers/STM32F0xx_HAL_Driver/Src/stm32f0xx_hal_rtc_ex.c ****   /* Change RTC state */
1239:Drivers/STM32F0xx_HAL_Driver/Src/stm32f0xx_hal_rtc_ex.c ****   hrtc->State = HAL_RTC_STATE_READY;
 1241              		.loc 1 1239 0
 1242 003e 0123     		movs	r3, #1
 1243 0040 6377     		strb	r3, [r4, #29]
1240:Drivers/STM32F0xx_HAL_Driver/Src/stm32f0xx_hal_rtc_ex.c **** 
1241:Drivers/STM32F0xx_HAL_Driver/Src/stm32f0xx_hal_rtc_ex.c ****   /* Process Unlocked */
1242:Drivers/STM32F0xx_HAL_Driver/Src/stm32f0xx_hal_rtc_ex.c ****   __HAL_UNLOCK(hrtc);
 1244              		.loc 1 1242 0
 1245 0042 0023     		movs	r3, #0
 1246 0044 2377     		strb	r3, [r4, #28]
1243:Drivers/STM32F0xx_HAL_Driver/Src/stm32f0xx_hal_rtc_ex.c **** 
1244:Drivers/STM32F0xx_HAL_Driver/Src/stm32f0xx_hal_rtc_ex.c ****   return HAL_OK;
 1247              		.loc 1 1244 0
 1248 0046 0020     		movs	r0, #0
 1249              	.L78:
1245:Drivers/STM32F0xx_HAL_Driver/Src/stm32f0xx_hal_rtc_ex.c **** }
 1250              		.loc 1 1245 0
 1251 0048 03B0     		add	sp, sp, #12
 1252              		@ sp needed
 1253              	.LVL107:
 1254 004a F0BD     		pop	{r4, r5, r6, r7, pc}
 1255              	.LVL108:
 1256              	.L83:
1211:Drivers/STM32F0xx_HAL_Driver/Src/stm32f0xx_hal_rtc_ex.c **** 
ARM GAS  /tmp/cc3tXaRV.s 			page 45


 1257              		.loc 1 1211 0
 1258 004c FFF7FEFF 		bl	HAL_GetTick
 1259              	.LVL109:
 1260 0050 0700     		movs	r7, r0
 1261              	.LVL110:
 1262              	.L80:
1214:Drivers/STM32F0xx_HAL_Driver/Src/stm32f0xx_hal_rtc_ex.c ****     {
 1263              		.loc 1 1214 0
 1264 0052 2368     		ldr	r3, [r4]
 1265 0054 DB68     		ldr	r3, [r3, #12]
 1266 0056 DB03     		lsls	r3, r3, #15
 1267 0058 E9D5     		bpl	.L79
1216:Drivers/STM32F0xx_HAL_Driver/Src/stm32f0xx_hal_rtc_ex.c ****       {
 1268              		.loc 1 1216 0
 1269 005a FFF7FEFF 		bl	HAL_GetTick
 1270              	.LVL111:
 1271 005e C01B     		subs	r0, r0, r7
 1272 0060 FA23     		movs	r3, #250
 1273 0062 9B00     		lsls	r3, r3, #2
 1274 0064 9842     		cmp	r0, r3
 1275 0066 F4D9     		bls	.L80
1219:Drivers/STM32F0xx_HAL_Driver/Src/stm32f0xx_hal_rtc_ex.c **** 
 1276              		.loc 1 1219 0
 1277 0068 2368     		ldr	r3, [r4]
 1278 006a FF22     		movs	r2, #255
 1279 006c 5A62     		str	r2, [r3, #36]
1222:Drivers/STM32F0xx_HAL_Driver/Src/stm32f0xx_hal_rtc_ex.c **** 
 1280              		.loc 1 1222 0
 1281 006e 0323     		movs	r3, #3
 1282 0070 6377     		strb	r3, [r4, #29]
1225:Drivers/STM32F0xx_HAL_Driver/Src/stm32f0xx_hal_rtc_ex.c **** 
 1283              		.loc 1 1225 0
 1284 0072 0023     		movs	r3, #0
 1285 0074 2377     		strb	r3, [r4, #28]
1227:Drivers/STM32F0xx_HAL_Driver/Src/stm32f0xx_hal_rtc_ex.c ****       }
 1286              		.loc 1 1227 0
 1287 0076 0320     		movs	r0, #3
 1288 0078 E6E7     		b	.L78
 1289              	.LVL112:
 1290              	.L82:
1201:Drivers/STM32F0xx_HAL_Driver/Src/stm32f0xx_hal_rtc_ex.c **** 
 1291              		.loc 1 1201 0
 1292 007a 0220     		movs	r0, #2
 1293              	.LVL113:
 1294 007c E4E7     		b	.L78
 1295              		.cfi_endproc
 1296              	.LFE49:
 1298              		.section	.text.HAL_RTCEx_SetSynchroShift,"ax",%progbits
 1299              		.align	1
 1300              		.global	HAL_RTCEx_SetSynchroShift
 1301              		.syntax unified
 1302              		.code	16
 1303              		.thumb_func
 1304              		.fpu softvfp
 1306              	HAL_RTCEx_SetSynchroShift:
 1307              	.LFB50:
1246:Drivers/STM32F0xx_HAL_Driver/Src/stm32f0xx_hal_rtc_ex.c **** 
ARM GAS  /tmp/cc3tXaRV.s 			page 46


1247:Drivers/STM32F0xx_HAL_Driver/Src/stm32f0xx_hal_rtc_ex.c **** /**
1248:Drivers/STM32F0xx_HAL_Driver/Src/stm32f0xx_hal_rtc_ex.c ****   * @brief  Configure the Synchronization Shift Control Settings.
1249:Drivers/STM32F0xx_HAL_Driver/Src/stm32f0xx_hal_rtc_ex.c ****   * @note   When REFCKON is set, firmware must not write to Shift control register. 
1250:Drivers/STM32F0xx_HAL_Driver/Src/stm32f0xx_hal_rtc_ex.c ****   * @param  hrtc RTC handle    
1251:Drivers/STM32F0xx_HAL_Driver/Src/stm32f0xx_hal_rtc_ex.c ****   * @param  ShiftAdd1S Select to add or not 1 second to the time calendar.
1252:Drivers/STM32F0xx_HAL_Driver/Src/stm32f0xx_hal_rtc_ex.c ****   *          This parameter can be one of the following values :
1253:Drivers/STM32F0xx_HAL_Driver/Src/stm32f0xx_hal_rtc_ex.c ****   *             @arg RTC_SHIFTADD1S_SET: Add one second to the clock calendar. 
1254:Drivers/STM32F0xx_HAL_Driver/Src/stm32f0xx_hal_rtc_ex.c ****   *             @arg RTC_SHIFTADD1S_RESET: No effect.
1255:Drivers/STM32F0xx_HAL_Driver/Src/stm32f0xx_hal_rtc_ex.c ****   * @param  ShiftSubFS Select the number of Second Fractions to substitute.
1256:Drivers/STM32F0xx_HAL_Driver/Src/stm32f0xx_hal_rtc_ex.c ****   *          This parameter can be one any value from 0 to 0x7FFF.
1257:Drivers/STM32F0xx_HAL_Driver/Src/stm32f0xx_hal_rtc_ex.c ****   * @retval HAL status
1258:Drivers/STM32F0xx_HAL_Driver/Src/stm32f0xx_hal_rtc_ex.c ****   */
1259:Drivers/STM32F0xx_HAL_Driver/Src/stm32f0xx_hal_rtc_ex.c **** HAL_StatusTypeDef HAL_RTCEx_SetSynchroShift(RTC_HandleTypeDef* hrtc, uint32_t ShiftAdd1S, uint32_t 
1260:Drivers/STM32F0xx_HAL_Driver/Src/stm32f0xx_hal_rtc_ex.c **** {
 1308              		.loc 1 1260 0
 1309              		.cfi_startproc
 1310              		@ args = 0, pretend = 0, frame = 0
 1311              		@ frame_needed = 0, uses_anonymous_args = 0
 1312              	.LVL114:
 1313 0000 F8B5     		push	{r3, r4, r5, r6, r7, lr}
 1314              	.LCFI14:
 1315              		.cfi_def_cfa_offset 24
 1316              		.cfi_offset 3, -24
 1317              		.cfi_offset 4, -20
 1318              		.cfi_offset 5, -16
 1319              		.cfi_offset 6, -12
 1320              		.cfi_offset 7, -8
 1321              		.cfi_offset 14, -4
 1322 0002 0600     		movs	r6, r0
 1323 0004 0D00     		movs	r5, r1
 1324 0006 1400     		movs	r4, r2
 1325              	.LVL115:
1261:Drivers/STM32F0xx_HAL_Driver/Src/stm32f0xx_hal_rtc_ex.c ****   uint32_t tickstart = 0U;
1262:Drivers/STM32F0xx_HAL_Driver/Src/stm32f0xx_hal_rtc_ex.c **** 
1263:Drivers/STM32F0xx_HAL_Driver/Src/stm32f0xx_hal_rtc_ex.c ****   /* Check the parameters */
1264:Drivers/STM32F0xx_HAL_Driver/Src/stm32f0xx_hal_rtc_ex.c ****   assert_param(IS_RTC_SHIFT_ADD1S(ShiftAdd1S));
1265:Drivers/STM32F0xx_HAL_Driver/Src/stm32f0xx_hal_rtc_ex.c ****   assert_param(IS_RTC_SHIFT_SUBFS(ShiftSubFS));
1266:Drivers/STM32F0xx_HAL_Driver/Src/stm32f0xx_hal_rtc_ex.c **** 
1267:Drivers/STM32F0xx_HAL_Driver/Src/stm32f0xx_hal_rtc_ex.c ****   /* Process Locked */
1268:Drivers/STM32F0xx_HAL_Driver/Src/stm32f0xx_hal_rtc_ex.c ****   __HAL_LOCK(hrtc);
 1326              		.loc 1 1268 0
 1327 0008 037F     		ldrb	r3, [r0, #28]
 1328 000a 012B     		cmp	r3, #1
 1329 000c 01D1     		bne	.L91
 1330 000e 0220     		movs	r0, #2
 1331              	.LVL116:
 1332              	.L85:
1269:Drivers/STM32F0xx_HAL_Driver/Src/stm32f0xx_hal_rtc_ex.c **** 
1270:Drivers/STM32F0xx_HAL_Driver/Src/stm32f0xx_hal_rtc_ex.c ****   hrtc->State = HAL_RTC_STATE_BUSY;
1271:Drivers/STM32F0xx_HAL_Driver/Src/stm32f0xx_hal_rtc_ex.c **** 
1272:Drivers/STM32F0xx_HAL_Driver/Src/stm32f0xx_hal_rtc_ex.c ****   /* Disable the write protection for RTC registers */
1273:Drivers/STM32F0xx_HAL_Driver/Src/stm32f0xx_hal_rtc_ex.c ****   __HAL_RTC_WRITEPROTECTION_DISABLE(hrtc);
1274:Drivers/STM32F0xx_HAL_Driver/Src/stm32f0xx_hal_rtc_ex.c **** 
1275:Drivers/STM32F0xx_HAL_Driver/Src/stm32f0xx_hal_rtc_ex.c ****     tickstart = HAL_GetTick();
1276:Drivers/STM32F0xx_HAL_Driver/Src/stm32f0xx_hal_rtc_ex.c **** 
1277:Drivers/STM32F0xx_HAL_Driver/Src/stm32f0xx_hal_rtc_ex.c ****     /* Wait until the shift is completed*/
1278:Drivers/STM32F0xx_HAL_Driver/Src/stm32f0xx_hal_rtc_ex.c ****     while((hrtc->Instance->ISR & RTC_ISR_SHPF) != RESET)
ARM GAS  /tmp/cc3tXaRV.s 			page 47


1279:Drivers/STM32F0xx_HAL_Driver/Src/stm32f0xx_hal_rtc_ex.c ****     {
1280:Drivers/STM32F0xx_HAL_Driver/Src/stm32f0xx_hal_rtc_ex.c ****       if((HAL_GetTick()-tickstart) > RTC_TIMEOUT_VALUE)
1281:Drivers/STM32F0xx_HAL_Driver/Src/stm32f0xx_hal_rtc_ex.c ****       {
1282:Drivers/STM32F0xx_HAL_Driver/Src/stm32f0xx_hal_rtc_ex.c ****         /* Enable the write protection for RTC registers */
1283:Drivers/STM32F0xx_HAL_Driver/Src/stm32f0xx_hal_rtc_ex.c ****         __HAL_RTC_WRITEPROTECTION_ENABLE(hrtc);
1284:Drivers/STM32F0xx_HAL_Driver/Src/stm32f0xx_hal_rtc_ex.c **** 
1285:Drivers/STM32F0xx_HAL_Driver/Src/stm32f0xx_hal_rtc_ex.c ****         hrtc->State = HAL_RTC_STATE_TIMEOUT;
1286:Drivers/STM32F0xx_HAL_Driver/Src/stm32f0xx_hal_rtc_ex.c **** 
1287:Drivers/STM32F0xx_HAL_Driver/Src/stm32f0xx_hal_rtc_ex.c ****         /* Process Unlocked */
1288:Drivers/STM32F0xx_HAL_Driver/Src/stm32f0xx_hal_rtc_ex.c ****         __HAL_UNLOCK(hrtc);
1289:Drivers/STM32F0xx_HAL_Driver/Src/stm32f0xx_hal_rtc_ex.c **** 
1290:Drivers/STM32F0xx_HAL_Driver/Src/stm32f0xx_hal_rtc_ex.c ****         return HAL_TIMEOUT;
1291:Drivers/STM32F0xx_HAL_Driver/Src/stm32f0xx_hal_rtc_ex.c ****       }
1292:Drivers/STM32F0xx_HAL_Driver/Src/stm32f0xx_hal_rtc_ex.c ****     }
1293:Drivers/STM32F0xx_HAL_Driver/Src/stm32f0xx_hal_rtc_ex.c **** 
1294:Drivers/STM32F0xx_HAL_Driver/Src/stm32f0xx_hal_rtc_ex.c ****     /* Check if the reference clock detection is disabled */
1295:Drivers/STM32F0xx_HAL_Driver/Src/stm32f0xx_hal_rtc_ex.c ****     if((hrtc->Instance->CR & RTC_CR_REFCKON) == RESET)
1296:Drivers/STM32F0xx_HAL_Driver/Src/stm32f0xx_hal_rtc_ex.c ****     {
1297:Drivers/STM32F0xx_HAL_Driver/Src/stm32f0xx_hal_rtc_ex.c ****       /* Configure the Shift settings */
1298:Drivers/STM32F0xx_HAL_Driver/Src/stm32f0xx_hal_rtc_ex.c ****       hrtc->Instance->SHIFTR = (uint32_t)(uint32_t)(ShiftSubFS) | (uint32_t)(ShiftAdd1S);
1299:Drivers/STM32F0xx_HAL_Driver/Src/stm32f0xx_hal_rtc_ex.c **** 
1300:Drivers/STM32F0xx_HAL_Driver/Src/stm32f0xx_hal_rtc_ex.c ****       /* If  RTC_CR_BYPSHAD bit = 0, wait for synchro else this check is not needed */
1301:Drivers/STM32F0xx_HAL_Driver/Src/stm32f0xx_hal_rtc_ex.c ****       if((hrtc->Instance->CR & RTC_CR_BYPSHAD) == RESET)
1302:Drivers/STM32F0xx_HAL_Driver/Src/stm32f0xx_hal_rtc_ex.c ****       {
1303:Drivers/STM32F0xx_HAL_Driver/Src/stm32f0xx_hal_rtc_ex.c ****         if(HAL_RTC_WaitForSynchro(hrtc) != HAL_OK)
1304:Drivers/STM32F0xx_HAL_Driver/Src/stm32f0xx_hal_rtc_ex.c ****         {
1305:Drivers/STM32F0xx_HAL_Driver/Src/stm32f0xx_hal_rtc_ex.c ****           /* Enable the write protection for RTC registers */
1306:Drivers/STM32F0xx_HAL_Driver/Src/stm32f0xx_hal_rtc_ex.c ****           __HAL_RTC_WRITEPROTECTION_ENABLE(hrtc);
1307:Drivers/STM32F0xx_HAL_Driver/Src/stm32f0xx_hal_rtc_ex.c **** 
1308:Drivers/STM32F0xx_HAL_Driver/Src/stm32f0xx_hal_rtc_ex.c ****           hrtc->State = HAL_RTC_STATE_ERROR;
1309:Drivers/STM32F0xx_HAL_Driver/Src/stm32f0xx_hal_rtc_ex.c **** 
1310:Drivers/STM32F0xx_HAL_Driver/Src/stm32f0xx_hal_rtc_ex.c ****           /* Process Unlocked */
1311:Drivers/STM32F0xx_HAL_Driver/Src/stm32f0xx_hal_rtc_ex.c ****           __HAL_UNLOCK(hrtc);
1312:Drivers/STM32F0xx_HAL_Driver/Src/stm32f0xx_hal_rtc_ex.c **** 
1313:Drivers/STM32F0xx_HAL_Driver/Src/stm32f0xx_hal_rtc_ex.c ****           return HAL_ERROR;
1314:Drivers/STM32F0xx_HAL_Driver/Src/stm32f0xx_hal_rtc_ex.c ****         }
1315:Drivers/STM32F0xx_HAL_Driver/Src/stm32f0xx_hal_rtc_ex.c ****       }
1316:Drivers/STM32F0xx_HAL_Driver/Src/stm32f0xx_hal_rtc_ex.c ****     }
1317:Drivers/STM32F0xx_HAL_Driver/Src/stm32f0xx_hal_rtc_ex.c ****     else
1318:Drivers/STM32F0xx_HAL_Driver/Src/stm32f0xx_hal_rtc_ex.c ****     {
1319:Drivers/STM32F0xx_HAL_Driver/Src/stm32f0xx_hal_rtc_ex.c ****       /* Enable the write protection for RTC registers */
1320:Drivers/STM32F0xx_HAL_Driver/Src/stm32f0xx_hal_rtc_ex.c ****       __HAL_RTC_WRITEPROTECTION_ENABLE(hrtc);
1321:Drivers/STM32F0xx_HAL_Driver/Src/stm32f0xx_hal_rtc_ex.c **** 
1322:Drivers/STM32F0xx_HAL_Driver/Src/stm32f0xx_hal_rtc_ex.c ****       /* Change RTC state */
1323:Drivers/STM32F0xx_HAL_Driver/Src/stm32f0xx_hal_rtc_ex.c ****       hrtc->State = HAL_RTC_STATE_ERROR;
1324:Drivers/STM32F0xx_HAL_Driver/Src/stm32f0xx_hal_rtc_ex.c **** 
1325:Drivers/STM32F0xx_HAL_Driver/Src/stm32f0xx_hal_rtc_ex.c ****       /* Process Unlocked */
1326:Drivers/STM32F0xx_HAL_Driver/Src/stm32f0xx_hal_rtc_ex.c ****       __HAL_UNLOCK(hrtc);
1327:Drivers/STM32F0xx_HAL_Driver/Src/stm32f0xx_hal_rtc_ex.c **** 
1328:Drivers/STM32F0xx_HAL_Driver/Src/stm32f0xx_hal_rtc_ex.c ****       return HAL_ERROR;
1329:Drivers/STM32F0xx_HAL_Driver/Src/stm32f0xx_hal_rtc_ex.c ****     }
1330:Drivers/STM32F0xx_HAL_Driver/Src/stm32f0xx_hal_rtc_ex.c **** 
1331:Drivers/STM32F0xx_HAL_Driver/Src/stm32f0xx_hal_rtc_ex.c ****   /* Enable the write protection for RTC registers */
1332:Drivers/STM32F0xx_HAL_Driver/Src/stm32f0xx_hal_rtc_ex.c ****   __HAL_RTC_WRITEPROTECTION_ENABLE(hrtc);
1333:Drivers/STM32F0xx_HAL_Driver/Src/stm32f0xx_hal_rtc_ex.c **** 
1334:Drivers/STM32F0xx_HAL_Driver/Src/stm32f0xx_hal_rtc_ex.c ****   /* Change RTC state */
1335:Drivers/STM32F0xx_HAL_Driver/Src/stm32f0xx_hal_rtc_ex.c ****   hrtc->State = HAL_RTC_STATE_READY;
ARM GAS  /tmp/cc3tXaRV.s 			page 48


1336:Drivers/STM32F0xx_HAL_Driver/Src/stm32f0xx_hal_rtc_ex.c **** 
1337:Drivers/STM32F0xx_HAL_Driver/Src/stm32f0xx_hal_rtc_ex.c ****   /* Process Unlocked */
1338:Drivers/STM32F0xx_HAL_Driver/Src/stm32f0xx_hal_rtc_ex.c ****   __HAL_UNLOCK(hrtc);
1339:Drivers/STM32F0xx_HAL_Driver/Src/stm32f0xx_hal_rtc_ex.c **** 
1340:Drivers/STM32F0xx_HAL_Driver/Src/stm32f0xx_hal_rtc_ex.c ****   return HAL_OK;
1341:Drivers/STM32F0xx_HAL_Driver/Src/stm32f0xx_hal_rtc_ex.c **** }
 1333              		.loc 1 1341 0
 1334              		@ sp needed
 1335              	.LVL117:
 1336              	.LVL118:
 1337 0010 F8BD     		pop	{r3, r4, r5, r6, r7, pc}
 1338              	.LVL119:
 1339              	.L91:
1268:Drivers/STM32F0xx_HAL_Driver/Src/stm32f0xx_hal_rtc_ex.c **** 
 1340              		.loc 1 1268 0 discriminator 2
 1341 0012 0123     		movs	r3, #1
 1342 0014 0377     		strb	r3, [r0, #28]
1270:Drivers/STM32F0xx_HAL_Driver/Src/stm32f0xx_hal_rtc_ex.c **** 
 1343              		.loc 1 1270 0 discriminator 2
 1344 0016 0133     		adds	r3, r3, #1
 1345 0018 4377     		strb	r3, [r0, #29]
1273:Drivers/STM32F0xx_HAL_Driver/Src/stm32f0xx_hal_rtc_ex.c **** 
 1346              		.loc 1 1273 0 discriminator 2
 1347 001a 0368     		ldr	r3, [r0]
 1348 001c CA22     		movs	r2, #202
 1349              	.LVL120:
 1350 001e 5A62     		str	r2, [r3, #36]
 1351 0020 0368     		ldr	r3, [r0]
 1352 0022 773A     		subs	r2, r2, #119
 1353 0024 5A62     		str	r2, [r3, #36]
1275:Drivers/STM32F0xx_HAL_Driver/Src/stm32f0xx_hal_rtc_ex.c **** 
 1354              		.loc 1 1275 0 discriminator 2
 1355 0026 FFF7FEFF 		bl	HAL_GetTick
 1356              	.LVL121:
 1357 002a 0700     		movs	r7, r0
 1358              	.LVL122:
 1359              	.L86:
1278:Drivers/STM32F0xx_HAL_Driver/Src/stm32f0xx_hal_rtc_ex.c ****     {
 1360              		.loc 1 1278 0
 1361 002c 3368     		ldr	r3, [r6]
 1362 002e DA68     		ldr	r2, [r3, #12]
 1363 0030 1207     		lsls	r2, r2, #28
 1364 0032 0FD5     		bpl	.L92
1280:Drivers/STM32F0xx_HAL_Driver/Src/stm32f0xx_hal_rtc_ex.c ****       {
 1365              		.loc 1 1280 0
 1366 0034 FFF7FEFF 		bl	HAL_GetTick
 1367              	.LVL123:
 1368 0038 C01B     		subs	r0, r0, r7
 1369 003a FA23     		movs	r3, #250
 1370 003c 9B00     		lsls	r3, r3, #2
 1371 003e 9842     		cmp	r0, r3
 1372 0040 F4D9     		bls	.L86
1283:Drivers/STM32F0xx_HAL_Driver/Src/stm32f0xx_hal_rtc_ex.c **** 
 1373              		.loc 1 1283 0
 1374 0042 3368     		ldr	r3, [r6]
 1375 0044 FF22     		movs	r2, #255
 1376 0046 5A62     		str	r2, [r3, #36]
ARM GAS  /tmp/cc3tXaRV.s 			page 49


1285:Drivers/STM32F0xx_HAL_Driver/Src/stm32f0xx_hal_rtc_ex.c **** 
 1377              		.loc 1 1285 0
 1378 0048 0323     		movs	r3, #3
 1379 004a 7377     		strb	r3, [r6, #29]
1288:Drivers/STM32F0xx_HAL_Driver/Src/stm32f0xx_hal_rtc_ex.c **** 
 1380              		.loc 1 1288 0
 1381 004c 0023     		movs	r3, #0
 1382 004e 3377     		strb	r3, [r6, #28]
1290:Drivers/STM32F0xx_HAL_Driver/Src/stm32f0xx_hal_rtc_ex.c ****       }
 1383              		.loc 1 1290 0
 1384 0050 0320     		movs	r0, #3
 1385 0052 DDE7     		b	.L85
 1386              	.L92:
1295:Drivers/STM32F0xx_HAL_Driver/Src/stm32f0xx_hal_rtc_ex.c ****     {
 1387              		.loc 1 1295 0
 1388 0054 9A68     		ldr	r2, [r3, #8]
 1389 0056 D206     		lsls	r2, r2, #27
 1390 0058 1CD4     		bmi	.L88
1298:Drivers/STM32F0xx_HAL_Driver/Src/stm32f0xx_hal_rtc_ex.c **** 
 1391              		.loc 1 1298 0
 1392 005a 2C43     		orrs	r4, r5
 1393              	.LVL124:
 1394 005c DC62     		str	r4, [r3, #44]
1301:Drivers/STM32F0xx_HAL_Driver/Src/stm32f0xx_hal_rtc_ex.c ****       {
 1395              		.loc 1 1301 0
 1396 005e 3368     		ldr	r3, [r6]
 1397 0060 9B68     		ldr	r3, [r3, #8]
 1398 0062 9B06     		lsls	r3, r3, #26
 1399 0064 08D5     		bpl	.L93
 1400              	.L89:
1332:Drivers/STM32F0xx_HAL_Driver/Src/stm32f0xx_hal_rtc_ex.c **** 
 1401              		.loc 1 1332 0
 1402 0066 3368     		ldr	r3, [r6]
 1403 0068 FF22     		movs	r2, #255
 1404 006a 5A62     		str	r2, [r3, #36]
1335:Drivers/STM32F0xx_HAL_Driver/Src/stm32f0xx_hal_rtc_ex.c **** 
 1405              		.loc 1 1335 0
 1406 006c 0123     		movs	r3, #1
 1407 006e 7377     		strb	r3, [r6, #29]
1338:Drivers/STM32F0xx_HAL_Driver/Src/stm32f0xx_hal_rtc_ex.c **** 
 1408              		.loc 1 1338 0
 1409 0070 0023     		movs	r3, #0
 1410 0072 3377     		strb	r3, [r6, #28]
1340:Drivers/STM32F0xx_HAL_Driver/Src/stm32f0xx_hal_rtc_ex.c **** }
 1411              		.loc 1 1340 0
 1412 0074 0020     		movs	r0, #0
 1413 0076 CBE7     		b	.L85
 1414              	.L93:
1303:Drivers/STM32F0xx_HAL_Driver/Src/stm32f0xx_hal_rtc_ex.c ****         {
 1415              		.loc 1 1303 0
 1416 0078 3000     		movs	r0, r6
 1417 007a FFF7FEFF 		bl	HAL_RTC_WaitForSynchro
 1418              	.LVL125:
 1419 007e 0028     		cmp	r0, #0
 1420 0080 F1D0     		beq	.L89
1306:Drivers/STM32F0xx_HAL_Driver/Src/stm32f0xx_hal_rtc_ex.c **** 
 1421              		.loc 1 1306 0
ARM GAS  /tmp/cc3tXaRV.s 			page 50


 1422 0082 3368     		ldr	r3, [r6]
 1423 0084 FF22     		movs	r2, #255
 1424 0086 5A62     		str	r2, [r3, #36]
1308:Drivers/STM32F0xx_HAL_Driver/Src/stm32f0xx_hal_rtc_ex.c **** 
 1425              		.loc 1 1308 0
 1426 0088 0423     		movs	r3, #4
 1427 008a 7377     		strb	r3, [r6, #29]
1311:Drivers/STM32F0xx_HAL_Driver/Src/stm32f0xx_hal_rtc_ex.c **** 
 1428              		.loc 1 1311 0
 1429 008c 0023     		movs	r3, #0
 1430 008e 3377     		strb	r3, [r6, #28]
1313:Drivers/STM32F0xx_HAL_Driver/Src/stm32f0xx_hal_rtc_ex.c ****         }
 1431              		.loc 1 1313 0
 1432 0090 0120     		movs	r0, #1
 1433 0092 BDE7     		b	.L85
 1434              	.LVL126:
 1435              	.L88:
1320:Drivers/STM32F0xx_HAL_Driver/Src/stm32f0xx_hal_rtc_ex.c **** 
 1436              		.loc 1 1320 0
 1437 0094 FF22     		movs	r2, #255
 1438 0096 5A62     		str	r2, [r3, #36]
1323:Drivers/STM32F0xx_HAL_Driver/Src/stm32f0xx_hal_rtc_ex.c **** 
 1439              		.loc 1 1323 0
 1440 0098 0423     		movs	r3, #4
 1441 009a 7377     		strb	r3, [r6, #29]
1326:Drivers/STM32F0xx_HAL_Driver/Src/stm32f0xx_hal_rtc_ex.c **** 
 1442              		.loc 1 1326 0
 1443 009c 0023     		movs	r3, #0
 1444 009e 3377     		strb	r3, [r6, #28]
1328:Drivers/STM32F0xx_HAL_Driver/Src/stm32f0xx_hal_rtc_ex.c ****     }
 1445              		.loc 1 1328 0
 1446 00a0 0120     		movs	r0, #1
 1447 00a2 B5E7     		b	.L85
 1448              		.cfi_endproc
 1449              	.LFE50:
 1451              		.section	.text.HAL_RTCEx_SetCalibrationOutPut,"ax",%progbits
 1452              		.align	1
 1453              		.global	HAL_RTCEx_SetCalibrationOutPut
 1454              		.syntax unified
 1455              		.code	16
 1456              		.thumb_func
 1457              		.fpu softvfp
 1459              	HAL_RTCEx_SetCalibrationOutPut:
 1460              	.LFB51:
1342:Drivers/STM32F0xx_HAL_Driver/Src/stm32f0xx_hal_rtc_ex.c **** 
1343:Drivers/STM32F0xx_HAL_Driver/Src/stm32f0xx_hal_rtc_ex.c **** /**
1344:Drivers/STM32F0xx_HAL_Driver/Src/stm32f0xx_hal_rtc_ex.c ****   * @brief  Configure the Calibration Pinout (RTC_CALIB) Selection (1Hz or 512Hz).
1345:Drivers/STM32F0xx_HAL_Driver/Src/stm32f0xx_hal_rtc_ex.c ****   * @param  hrtc RTC handle
1346:Drivers/STM32F0xx_HAL_Driver/Src/stm32f0xx_hal_rtc_ex.c ****   * @param  CalibOutput Select the Calibration output Selection .
1347:Drivers/STM32F0xx_HAL_Driver/Src/stm32f0xx_hal_rtc_ex.c ****   *          This parameter can be one of the following values:
1348:Drivers/STM32F0xx_HAL_Driver/Src/stm32f0xx_hal_rtc_ex.c ****   *             @arg RTC_CALIBOUTPUT_512HZ: A signal has a regular waveform at 512Hz.
1349:Drivers/STM32F0xx_HAL_Driver/Src/stm32f0xx_hal_rtc_ex.c ****   *             @arg RTC_CALIBOUTPUT_1HZ: A signal has a regular waveform at 1Hz.
1350:Drivers/STM32F0xx_HAL_Driver/Src/stm32f0xx_hal_rtc_ex.c ****   * @retval HAL status
1351:Drivers/STM32F0xx_HAL_Driver/Src/stm32f0xx_hal_rtc_ex.c ****   */
1352:Drivers/STM32F0xx_HAL_Driver/Src/stm32f0xx_hal_rtc_ex.c **** HAL_StatusTypeDef HAL_RTCEx_SetCalibrationOutPut(RTC_HandleTypeDef* hrtc, uint32_t CalibOutput)
1353:Drivers/STM32F0xx_HAL_Driver/Src/stm32f0xx_hal_rtc_ex.c **** {
 1461              		.loc 1 1353 0
ARM GAS  /tmp/cc3tXaRV.s 			page 51


 1462              		.cfi_startproc
 1463              		@ args = 0, pretend = 0, frame = 0
 1464              		@ frame_needed = 0, uses_anonymous_args = 0
 1465              	.LVL127:
 1466 0000 30B5     		push	{r4, r5, lr}
 1467              	.LCFI15:
 1468              		.cfi_def_cfa_offset 12
 1469              		.cfi_offset 4, -12
 1470              		.cfi_offset 5, -8
 1471              		.cfi_offset 14, -4
1354:Drivers/STM32F0xx_HAL_Driver/Src/stm32f0xx_hal_rtc_ex.c ****   /* Check the parameters */
1355:Drivers/STM32F0xx_HAL_Driver/Src/stm32f0xx_hal_rtc_ex.c ****   assert_param(IS_RTC_CALIB_OUTPUT(CalibOutput));
1356:Drivers/STM32F0xx_HAL_Driver/Src/stm32f0xx_hal_rtc_ex.c **** 
1357:Drivers/STM32F0xx_HAL_Driver/Src/stm32f0xx_hal_rtc_ex.c ****   /* Process Locked */
1358:Drivers/STM32F0xx_HAL_Driver/Src/stm32f0xx_hal_rtc_ex.c ****   __HAL_LOCK(hrtc);
 1472              		.loc 1 1358 0
 1473 0002 037F     		ldrb	r3, [r0, #28]
 1474 0004 012B     		cmp	r3, #1
 1475 0006 20D0     		beq	.L96
 1476              		.loc 1 1358 0 is_stmt 0 discriminator 2
 1477 0008 0122     		movs	r2, #1
 1478 000a 0277     		strb	r2, [r0, #28]
1359:Drivers/STM32F0xx_HAL_Driver/Src/stm32f0xx_hal_rtc_ex.c **** 
1360:Drivers/STM32F0xx_HAL_Driver/Src/stm32f0xx_hal_rtc_ex.c ****   hrtc->State = HAL_RTC_STATE_BUSY;
 1479              		.loc 1 1360 0 is_stmt 1 discriminator 2
 1480 000c 0223     		movs	r3, #2
 1481 000e 4377     		strb	r3, [r0, #29]
1361:Drivers/STM32F0xx_HAL_Driver/Src/stm32f0xx_hal_rtc_ex.c **** 
1362:Drivers/STM32F0xx_HAL_Driver/Src/stm32f0xx_hal_rtc_ex.c ****   /* Disable the write protection for RTC registers */
1363:Drivers/STM32F0xx_HAL_Driver/Src/stm32f0xx_hal_rtc_ex.c ****   __HAL_RTC_WRITEPROTECTION_DISABLE(hrtc);
 1482              		.loc 1 1363 0 discriminator 2
 1483 0010 0368     		ldr	r3, [r0]
 1484 0012 CA24     		movs	r4, #202
 1485 0014 5C62     		str	r4, [r3, #36]
 1486 0016 0368     		ldr	r3, [r0]
 1487 0018 773C     		subs	r4, r4, #119
 1488 001a 5C62     		str	r4, [r3, #36]
1364:Drivers/STM32F0xx_HAL_Driver/Src/stm32f0xx_hal_rtc_ex.c **** 
1365:Drivers/STM32F0xx_HAL_Driver/Src/stm32f0xx_hal_rtc_ex.c ****   /* Clear flags before config */
1366:Drivers/STM32F0xx_HAL_Driver/Src/stm32f0xx_hal_rtc_ex.c ****   hrtc->Instance->CR &= (uint32_t)~RTC_CR_COSEL;
 1489              		.loc 1 1366 0 discriminator 2
 1490 001c 0468     		ldr	r4, [r0]
 1491 001e A368     		ldr	r3, [r4, #8]
 1492 0020 0B4D     		ldr	r5, .L97
 1493 0022 2B40     		ands	r3, r5
 1494 0024 A360     		str	r3, [r4, #8]
1367:Drivers/STM32F0xx_HAL_Driver/Src/stm32f0xx_hal_rtc_ex.c **** 
1368:Drivers/STM32F0xx_HAL_Driver/Src/stm32f0xx_hal_rtc_ex.c ****   /* Configure the RTC_CR register */
1369:Drivers/STM32F0xx_HAL_Driver/Src/stm32f0xx_hal_rtc_ex.c ****   hrtc->Instance->CR |= (uint32_t)CalibOutput;
 1495              		.loc 1 1369 0 discriminator 2
 1496 0026 0468     		ldr	r4, [r0]
 1497 0028 A368     		ldr	r3, [r4, #8]
 1498 002a 1943     		orrs	r1, r3
 1499              	.LVL128:
 1500 002c A160     		str	r1, [r4, #8]
1370:Drivers/STM32F0xx_HAL_Driver/Src/stm32f0xx_hal_rtc_ex.c **** 
1371:Drivers/STM32F0xx_HAL_Driver/Src/stm32f0xx_hal_rtc_ex.c ****   __HAL_RTC_CALIBRATION_OUTPUT_ENABLE(hrtc);
ARM GAS  /tmp/cc3tXaRV.s 			page 52


 1501              		.loc 1 1371 0 discriminator 2
 1502 002e 0168     		ldr	r1, [r0]
 1503 0030 8C68     		ldr	r4, [r1, #8]
 1504 0032 8023     		movs	r3, #128
 1505 0034 1B04     		lsls	r3, r3, #16
 1506 0036 2343     		orrs	r3, r4
 1507 0038 8B60     		str	r3, [r1, #8]
1372:Drivers/STM32F0xx_HAL_Driver/Src/stm32f0xx_hal_rtc_ex.c **** 
1373:Drivers/STM32F0xx_HAL_Driver/Src/stm32f0xx_hal_rtc_ex.c ****   /* Enable the write protection for RTC registers */
1374:Drivers/STM32F0xx_HAL_Driver/Src/stm32f0xx_hal_rtc_ex.c ****   __HAL_RTC_WRITEPROTECTION_ENABLE(hrtc);
 1508              		.loc 1 1374 0 discriminator 2
 1509 003a 0368     		ldr	r3, [r0]
 1510 003c FF21     		movs	r1, #255
 1511 003e 5962     		str	r1, [r3, #36]
1375:Drivers/STM32F0xx_HAL_Driver/Src/stm32f0xx_hal_rtc_ex.c **** 
1376:Drivers/STM32F0xx_HAL_Driver/Src/stm32f0xx_hal_rtc_ex.c ****   /* Change RTC state */
1377:Drivers/STM32F0xx_HAL_Driver/Src/stm32f0xx_hal_rtc_ex.c ****   hrtc->State = HAL_RTC_STATE_READY;
 1512              		.loc 1 1377 0 discriminator 2
 1513 0040 4277     		strb	r2, [r0, #29]
1378:Drivers/STM32F0xx_HAL_Driver/Src/stm32f0xx_hal_rtc_ex.c **** 
1379:Drivers/STM32F0xx_HAL_Driver/Src/stm32f0xx_hal_rtc_ex.c ****   /* Process Unlocked */
1380:Drivers/STM32F0xx_HAL_Driver/Src/stm32f0xx_hal_rtc_ex.c ****   __HAL_UNLOCK(hrtc);
 1514              		.loc 1 1380 0 discriminator 2
 1515 0042 0023     		movs	r3, #0
 1516 0044 0377     		strb	r3, [r0, #28]
1381:Drivers/STM32F0xx_HAL_Driver/Src/stm32f0xx_hal_rtc_ex.c **** 
1382:Drivers/STM32F0xx_HAL_Driver/Src/stm32f0xx_hal_rtc_ex.c ****   return HAL_OK;
 1517              		.loc 1 1382 0 discriminator 2
 1518 0046 0020     		movs	r0, #0
 1519              	.LVL129:
 1520              	.L95:
1383:Drivers/STM32F0xx_HAL_Driver/Src/stm32f0xx_hal_rtc_ex.c **** }
 1521              		.loc 1 1383 0
 1522              		@ sp needed
 1523 0048 30BD     		pop	{r4, r5, pc}
 1524              	.LVL130:
 1525              	.L96:
1358:Drivers/STM32F0xx_HAL_Driver/Src/stm32f0xx_hal_rtc_ex.c **** 
 1526              		.loc 1 1358 0
 1527 004a 0220     		movs	r0, #2
 1528              	.LVL131:
 1529 004c FCE7     		b	.L95
 1530              	.L98:
 1531 004e C046     		.align	2
 1532              	.L97:
 1533 0050 FFFFF7FF 		.word	-524289
 1534              		.cfi_endproc
 1535              	.LFE51:
 1537              		.section	.text.HAL_RTCEx_DeactivateCalibrationOutPut,"ax",%progbits
 1538              		.align	1
 1539              		.global	HAL_RTCEx_DeactivateCalibrationOutPut
 1540              		.syntax unified
 1541              		.code	16
 1542              		.thumb_func
 1543              		.fpu softvfp
 1545              	HAL_RTCEx_DeactivateCalibrationOutPut:
 1546              	.LFB52:
ARM GAS  /tmp/cc3tXaRV.s 			page 53


1384:Drivers/STM32F0xx_HAL_Driver/Src/stm32f0xx_hal_rtc_ex.c **** 
1385:Drivers/STM32F0xx_HAL_Driver/Src/stm32f0xx_hal_rtc_ex.c **** /**
1386:Drivers/STM32F0xx_HAL_Driver/Src/stm32f0xx_hal_rtc_ex.c ****   * @brief  Deactivate the Calibration Pinout (RTC_CALIB) Selection (1Hz or 512Hz).
1387:Drivers/STM32F0xx_HAL_Driver/Src/stm32f0xx_hal_rtc_ex.c ****   * @param  hrtc RTC handle
1388:Drivers/STM32F0xx_HAL_Driver/Src/stm32f0xx_hal_rtc_ex.c ****   * @retval HAL status
1389:Drivers/STM32F0xx_HAL_Driver/Src/stm32f0xx_hal_rtc_ex.c ****   */
1390:Drivers/STM32F0xx_HAL_Driver/Src/stm32f0xx_hal_rtc_ex.c **** HAL_StatusTypeDef HAL_RTCEx_DeactivateCalibrationOutPut(RTC_HandleTypeDef* hrtc)
1391:Drivers/STM32F0xx_HAL_Driver/Src/stm32f0xx_hal_rtc_ex.c **** {
 1547              		.loc 1 1391 0
 1548              		.cfi_startproc
 1549              		@ args = 0, pretend = 0, frame = 0
 1550              		@ frame_needed = 0, uses_anonymous_args = 0
 1551              	.LVL132:
 1552 0000 10B5     		push	{r4, lr}
 1553              	.LCFI16:
 1554              		.cfi_def_cfa_offset 8
 1555              		.cfi_offset 4, -8
 1556              		.cfi_offset 14, -4
1392:Drivers/STM32F0xx_HAL_Driver/Src/stm32f0xx_hal_rtc_ex.c ****   /* Process Locked */
1393:Drivers/STM32F0xx_HAL_Driver/Src/stm32f0xx_hal_rtc_ex.c ****   __HAL_LOCK(hrtc);
 1557              		.loc 1 1393 0
 1558 0002 037F     		ldrb	r3, [r0, #28]
 1559 0004 012B     		cmp	r3, #1
 1560 0006 16D0     		beq	.L101
 1561              		.loc 1 1393 0 is_stmt 0 discriminator 2
 1562 0008 0122     		movs	r2, #1
 1563 000a 0277     		strb	r2, [r0, #28]
1394:Drivers/STM32F0xx_HAL_Driver/Src/stm32f0xx_hal_rtc_ex.c **** 
1395:Drivers/STM32F0xx_HAL_Driver/Src/stm32f0xx_hal_rtc_ex.c ****   hrtc->State = HAL_RTC_STATE_BUSY;
 1564              		.loc 1 1395 0 is_stmt 1 discriminator 2
 1565 000c 0223     		movs	r3, #2
 1566 000e 4377     		strb	r3, [r0, #29]
1396:Drivers/STM32F0xx_HAL_Driver/Src/stm32f0xx_hal_rtc_ex.c **** 
1397:Drivers/STM32F0xx_HAL_Driver/Src/stm32f0xx_hal_rtc_ex.c ****   /* Disable the write protection for RTC registers */
1398:Drivers/STM32F0xx_HAL_Driver/Src/stm32f0xx_hal_rtc_ex.c ****   __HAL_RTC_WRITEPROTECTION_DISABLE(hrtc);
 1567              		.loc 1 1398 0 discriminator 2
 1568 0010 0368     		ldr	r3, [r0]
 1569 0012 CA21     		movs	r1, #202
 1570 0014 5962     		str	r1, [r3, #36]
 1571 0016 0368     		ldr	r3, [r0]
 1572 0018 7739     		subs	r1, r1, #119
 1573 001a 5962     		str	r1, [r3, #36]
1399:Drivers/STM32F0xx_HAL_Driver/Src/stm32f0xx_hal_rtc_ex.c **** 
1400:Drivers/STM32F0xx_HAL_Driver/Src/stm32f0xx_hal_rtc_ex.c ****   __HAL_RTC_CALIBRATION_OUTPUT_DISABLE(hrtc);
 1574              		.loc 1 1400 0 discriminator 2
 1575 001c 0168     		ldr	r1, [r0]
 1576 001e 8B68     		ldr	r3, [r1, #8]
 1577 0020 064C     		ldr	r4, .L102
 1578 0022 2340     		ands	r3, r4
 1579 0024 8B60     		str	r3, [r1, #8]
1401:Drivers/STM32F0xx_HAL_Driver/Src/stm32f0xx_hal_rtc_ex.c **** 
1402:Drivers/STM32F0xx_HAL_Driver/Src/stm32f0xx_hal_rtc_ex.c ****   /* Enable the write protection for RTC registers */
1403:Drivers/STM32F0xx_HAL_Driver/Src/stm32f0xx_hal_rtc_ex.c ****   __HAL_RTC_WRITEPROTECTION_ENABLE(hrtc);
 1580              		.loc 1 1403 0 discriminator 2
 1581 0026 0368     		ldr	r3, [r0]
 1582 0028 FF21     		movs	r1, #255
 1583 002a 5962     		str	r1, [r3, #36]
ARM GAS  /tmp/cc3tXaRV.s 			page 54


1404:Drivers/STM32F0xx_HAL_Driver/Src/stm32f0xx_hal_rtc_ex.c **** 
1405:Drivers/STM32F0xx_HAL_Driver/Src/stm32f0xx_hal_rtc_ex.c ****   /* Change RTC state */
1406:Drivers/STM32F0xx_HAL_Driver/Src/stm32f0xx_hal_rtc_ex.c ****   hrtc->State = HAL_RTC_STATE_READY;
 1584              		.loc 1 1406 0 discriminator 2
 1585 002c 4277     		strb	r2, [r0, #29]
1407:Drivers/STM32F0xx_HAL_Driver/Src/stm32f0xx_hal_rtc_ex.c **** 
1408:Drivers/STM32F0xx_HAL_Driver/Src/stm32f0xx_hal_rtc_ex.c ****   /* Process Unlocked */
1409:Drivers/STM32F0xx_HAL_Driver/Src/stm32f0xx_hal_rtc_ex.c ****   __HAL_UNLOCK(hrtc);
 1586              		.loc 1 1409 0 discriminator 2
 1587 002e 0023     		movs	r3, #0
 1588 0030 0377     		strb	r3, [r0, #28]
1410:Drivers/STM32F0xx_HAL_Driver/Src/stm32f0xx_hal_rtc_ex.c **** 
1411:Drivers/STM32F0xx_HAL_Driver/Src/stm32f0xx_hal_rtc_ex.c ****   return HAL_OK;
 1589              		.loc 1 1411 0 discriminator 2
 1590 0032 0020     		movs	r0, #0
 1591              	.LVL133:
 1592              	.L100:
1412:Drivers/STM32F0xx_HAL_Driver/Src/stm32f0xx_hal_rtc_ex.c **** }
 1593              		.loc 1 1412 0
 1594              		@ sp needed
 1595 0034 10BD     		pop	{r4, pc}
 1596              	.LVL134:
 1597              	.L101:
1393:Drivers/STM32F0xx_HAL_Driver/Src/stm32f0xx_hal_rtc_ex.c **** 
 1598              		.loc 1 1393 0
 1599 0036 0220     		movs	r0, #2
 1600              	.LVL135:
 1601 0038 FCE7     		b	.L100
 1602              	.L103:
 1603 003a C046     		.align	2
 1604              	.L102:
 1605 003c FFFF7FFF 		.word	-8388609
 1606              		.cfi_endproc
 1607              	.LFE52:
 1609              		.section	.text.HAL_RTCEx_SetRefClock,"ax",%progbits
 1610              		.align	1
 1611              		.global	HAL_RTCEx_SetRefClock
 1612              		.syntax unified
 1613              		.code	16
 1614              		.thumb_func
 1615              		.fpu softvfp
 1617              	HAL_RTCEx_SetRefClock:
 1618              	.LFB53:
1413:Drivers/STM32F0xx_HAL_Driver/Src/stm32f0xx_hal_rtc_ex.c **** 
1414:Drivers/STM32F0xx_HAL_Driver/Src/stm32f0xx_hal_rtc_ex.c **** /**
1415:Drivers/STM32F0xx_HAL_Driver/Src/stm32f0xx_hal_rtc_ex.c ****   * @brief  Enable the RTC reference clock detection.
1416:Drivers/STM32F0xx_HAL_Driver/Src/stm32f0xx_hal_rtc_ex.c ****   * @param  hrtc RTC handle
1417:Drivers/STM32F0xx_HAL_Driver/Src/stm32f0xx_hal_rtc_ex.c ****   * @retval HAL status
1418:Drivers/STM32F0xx_HAL_Driver/Src/stm32f0xx_hal_rtc_ex.c ****   */
1419:Drivers/STM32F0xx_HAL_Driver/Src/stm32f0xx_hal_rtc_ex.c **** HAL_StatusTypeDef HAL_RTCEx_SetRefClock(RTC_HandleTypeDef* hrtc)
1420:Drivers/STM32F0xx_HAL_Driver/Src/stm32f0xx_hal_rtc_ex.c **** {
 1619              		.loc 1 1420 0
 1620              		.cfi_startproc
 1621              		@ args = 0, pretend = 0, frame = 0
 1622              		@ frame_needed = 0, uses_anonymous_args = 0
 1623              	.LVL136:
 1624 0000 10B5     		push	{r4, lr}
ARM GAS  /tmp/cc3tXaRV.s 			page 55


 1625              	.LCFI17:
 1626              		.cfi_def_cfa_offset 8
 1627              		.cfi_offset 4, -8
 1628              		.cfi_offset 14, -4
 1629 0002 0400     		movs	r4, r0
1421:Drivers/STM32F0xx_HAL_Driver/Src/stm32f0xx_hal_rtc_ex.c ****   /* Process Locked */
1422:Drivers/STM32F0xx_HAL_Driver/Src/stm32f0xx_hal_rtc_ex.c ****   __HAL_LOCK(hrtc);
 1630              		.loc 1 1422 0
 1631 0004 037F     		ldrb	r3, [r0, #28]
 1632 0006 012B     		cmp	r3, #1
 1633 0008 01D1     		bne	.L108
 1634 000a 0220     		movs	r0, #2
 1635              	.LVL137:
 1636              	.L105:
1423:Drivers/STM32F0xx_HAL_Driver/Src/stm32f0xx_hal_rtc_ex.c **** 
1424:Drivers/STM32F0xx_HAL_Driver/Src/stm32f0xx_hal_rtc_ex.c ****   hrtc->State = HAL_RTC_STATE_BUSY;
1425:Drivers/STM32F0xx_HAL_Driver/Src/stm32f0xx_hal_rtc_ex.c **** 
1426:Drivers/STM32F0xx_HAL_Driver/Src/stm32f0xx_hal_rtc_ex.c ****   /* Disable the write protection for RTC registers */
1427:Drivers/STM32F0xx_HAL_Driver/Src/stm32f0xx_hal_rtc_ex.c ****   __HAL_RTC_WRITEPROTECTION_DISABLE(hrtc);
1428:Drivers/STM32F0xx_HAL_Driver/Src/stm32f0xx_hal_rtc_ex.c **** 
1429:Drivers/STM32F0xx_HAL_Driver/Src/stm32f0xx_hal_rtc_ex.c ****   /* Set Initialization mode */
1430:Drivers/STM32F0xx_HAL_Driver/Src/stm32f0xx_hal_rtc_ex.c ****   if(RTC_EnterInitMode(hrtc) != HAL_OK)
1431:Drivers/STM32F0xx_HAL_Driver/Src/stm32f0xx_hal_rtc_ex.c ****   {
1432:Drivers/STM32F0xx_HAL_Driver/Src/stm32f0xx_hal_rtc_ex.c ****     /* Enable the write protection for RTC registers */
1433:Drivers/STM32F0xx_HAL_Driver/Src/stm32f0xx_hal_rtc_ex.c ****     __HAL_RTC_WRITEPROTECTION_ENABLE(hrtc);
1434:Drivers/STM32F0xx_HAL_Driver/Src/stm32f0xx_hal_rtc_ex.c **** 
1435:Drivers/STM32F0xx_HAL_Driver/Src/stm32f0xx_hal_rtc_ex.c ****     /* Set RTC state*/
1436:Drivers/STM32F0xx_HAL_Driver/Src/stm32f0xx_hal_rtc_ex.c ****     hrtc->State = HAL_RTC_STATE_ERROR;
1437:Drivers/STM32F0xx_HAL_Driver/Src/stm32f0xx_hal_rtc_ex.c **** 
1438:Drivers/STM32F0xx_HAL_Driver/Src/stm32f0xx_hal_rtc_ex.c ****     /* Process Unlocked */
1439:Drivers/STM32F0xx_HAL_Driver/Src/stm32f0xx_hal_rtc_ex.c ****     __HAL_UNLOCK(hrtc);
1440:Drivers/STM32F0xx_HAL_Driver/Src/stm32f0xx_hal_rtc_ex.c **** 
1441:Drivers/STM32F0xx_HAL_Driver/Src/stm32f0xx_hal_rtc_ex.c ****     return HAL_ERROR;
1442:Drivers/STM32F0xx_HAL_Driver/Src/stm32f0xx_hal_rtc_ex.c ****   }
1443:Drivers/STM32F0xx_HAL_Driver/Src/stm32f0xx_hal_rtc_ex.c ****   else
1444:Drivers/STM32F0xx_HAL_Driver/Src/stm32f0xx_hal_rtc_ex.c ****   {
1445:Drivers/STM32F0xx_HAL_Driver/Src/stm32f0xx_hal_rtc_ex.c ****     __HAL_RTC_CLOCKREF_DETECTION_ENABLE(hrtc);
1446:Drivers/STM32F0xx_HAL_Driver/Src/stm32f0xx_hal_rtc_ex.c **** 
1447:Drivers/STM32F0xx_HAL_Driver/Src/stm32f0xx_hal_rtc_ex.c ****     /* Exit Initialization mode */
1448:Drivers/STM32F0xx_HAL_Driver/Src/stm32f0xx_hal_rtc_ex.c ****     hrtc->Instance->ISR &= (uint32_t)~RTC_ISR_INIT;
1449:Drivers/STM32F0xx_HAL_Driver/Src/stm32f0xx_hal_rtc_ex.c ****   }
1450:Drivers/STM32F0xx_HAL_Driver/Src/stm32f0xx_hal_rtc_ex.c **** 
1451:Drivers/STM32F0xx_HAL_Driver/Src/stm32f0xx_hal_rtc_ex.c ****   /* Enable the write protection for RTC registers */
1452:Drivers/STM32F0xx_HAL_Driver/Src/stm32f0xx_hal_rtc_ex.c ****   __HAL_RTC_WRITEPROTECTION_ENABLE(hrtc);
1453:Drivers/STM32F0xx_HAL_Driver/Src/stm32f0xx_hal_rtc_ex.c **** 
1454:Drivers/STM32F0xx_HAL_Driver/Src/stm32f0xx_hal_rtc_ex.c ****    /* Change RTC state */
1455:Drivers/STM32F0xx_HAL_Driver/Src/stm32f0xx_hal_rtc_ex.c ****   hrtc->State = HAL_RTC_STATE_READY;
1456:Drivers/STM32F0xx_HAL_Driver/Src/stm32f0xx_hal_rtc_ex.c **** 
1457:Drivers/STM32F0xx_HAL_Driver/Src/stm32f0xx_hal_rtc_ex.c ****   /* Process Unlocked */
1458:Drivers/STM32F0xx_HAL_Driver/Src/stm32f0xx_hal_rtc_ex.c ****   __HAL_UNLOCK(hrtc);
1459:Drivers/STM32F0xx_HAL_Driver/Src/stm32f0xx_hal_rtc_ex.c **** 
1460:Drivers/STM32F0xx_HAL_Driver/Src/stm32f0xx_hal_rtc_ex.c ****   return HAL_OK;
1461:Drivers/STM32F0xx_HAL_Driver/Src/stm32f0xx_hal_rtc_ex.c **** }
 1637              		.loc 1 1461 0
 1638              		@ sp needed
 1639              	.LVL138:
 1640 000c 10BD     		pop	{r4, pc}
ARM GAS  /tmp/cc3tXaRV.s 			page 56


 1641              	.LVL139:
 1642              	.L108:
1422:Drivers/STM32F0xx_HAL_Driver/Src/stm32f0xx_hal_rtc_ex.c **** 
 1643              		.loc 1 1422 0 discriminator 2
 1644 000e 0123     		movs	r3, #1
 1645 0010 0377     		strb	r3, [r0, #28]
1424:Drivers/STM32F0xx_HAL_Driver/Src/stm32f0xx_hal_rtc_ex.c **** 
 1646              		.loc 1 1424 0 discriminator 2
 1647 0012 0133     		adds	r3, r3, #1
 1648 0014 4377     		strb	r3, [r0, #29]
1427:Drivers/STM32F0xx_HAL_Driver/Src/stm32f0xx_hal_rtc_ex.c **** 
 1649              		.loc 1 1427 0 discriminator 2
 1650 0016 0368     		ldr	r3, [r0]
 1651 0018 CA22     		movs	r2, #202
 1652 001a 5A62     		str	r2, [r3, #36]
 1653 001c 0368     		ldr	r3, [r0]
 1654 001e 773A     		subs	r2, r2, #119
 1655 0020 5A62     		str	r2, [r3, #36]
1430:Drivers/STM32F0xx_HAL_Driver/Src/stm32f0xx_hal_rtc_ex.c ****   {
 1656              		.loc 1 1430 0 discriminator 2
 1657 0022 FFF7FEFF 		bl	RTC_EnterInitMode
 1658              	.LVL140:
 1659 0026 0028     		cmp	r0, #0
 1660 0028 11D1     		bne	.L109
1445:Drivers/STM32F0xx_HAL_Driver/Src/stm32f0xx_hal_rtc_ex.c **** 
 1661              		.loc 1 1445 0
 1662 002a 2268     		ldr	r2, [r4]
 1663 002c 9368     		ldr	r3, [r2, #8]
 1664 002e 1021     		movs	r1, #16
 1665 0030 0B43     		orrs	r3, r1
 1666 0032 9360     		str	r3, [r2, #8]
1448:Drivers/STM32F0xx_HAL_Driver/Src/stm32f0xx_hal_rtc_ex.c ****   }
 1667              		.loc 1 1448 0
 1668 0034 2268     		ldr	r2, [r4]
 1669 0036 D368     		ldr	r3, [r2, #12]
 1670 0038 7031     		adds	r1, r1, #112
 1671 003a 8B43     		bics	r3, r1
 1672 003c D360     		str	r3, [r2, #12]
1452:Drivers/STM32F0xx_HAL_Driver/Src/stm32f0xx_hal_rtc_ex.c **** 
 1673              		.loc 1 1452 0
 1674 003e 2368     		ldr	r3, [r4]
 1675 0040 FF22     		movs	r2, #255
 1676 0042 5A62     		str	r2, [r3, #36]
1455:Drivers/STM32F0xx_HAL_Driver/Src/stm32f0xx_hal_rtc_ex.c **** 
 1677              		.loc 1 1455 0
 1678 0044 0123     		movs	r3, #1
 1679 0046 6377     		strb	r3, [r4, #29]
1458:Drivers/STM32F0xx_HAL_Driver/Src/stm32f0xx_hal_rtc_ex.c **** 
 1680              		.loc 1 1458 0
 1681 0048 0023     		movs	r3, #0
 1682 004a 2377     		strb	r3, [r4, #28]
1460:Drivers/STM32F0xx_HAL_Driver/Src/stm32f0xx_hal_rtc_ex.c **** }
 1683              		.loc 1 1460 0
 1684 004c DEE7     		b	.L105
 1685              	.L109:
1433:Drivers/STM32F0xx_HAL_Driver/Src/stm32f0xx_hal_rtc_ex.c **** 
 1686              		.loc 1 1433 0
ARM GAS  /tmp/cc3tXaRV.s 			page 57


 1687 004e 2368     		ldr	r3, [r4]
 1688 0050 FF22     		movs	r2, #255
 1689 0052 5A62     		str	r2, [r3, #36]
1436:Drivers/STM32F0xx_HAL_Driver/Src/stm32f0xx_hal_rtc_ex.c **** 
 1690              		.loc 1 1436 0
 1691 0054 0423     		movs	r3, #4
 1692 0056 6377     		strb	r3, [r4, #29]
1439:Drivers/STM32F0xx_HAL_Driver/Src/stm32f0xx_hal_rtc_ex.c **** 
 1693              		.loc 1 1439 0
 1694 0058 0023     		movs	r3, #0
 1695 005a 2377     		strb	r3, [r4, #28]
1441:Drivers/STM32F0xx_HAL_Driver/Src/stm32f0xx_hal_rtc_ex.c ****   }
 1696              		.loc 1 1441 0
 1697 005c 0120     		movs	r0, #1
 1698 005e D5E7     		b	.L105
 1699              		.cfi_endproc
 1700              	.LFE53:
 1702              		.section	.text.HAL_RTCEx_DeactivateRefClock,"ax",%progbits
 1703              		.align	1
 1704              		.global	HAL_RTCEx_DeactivateRefClock
 1705              		.syntax unified
 1706              		.code	16
 1707              		.thumb_func
 1708              		.fpu softvfp
 1710              	HAL_RTCEx_DeactivateRefClock:
 1711              	.LFB54:
1462:Drivers/STM32F0xx_HAL_Driver/Src/stm32f0xx_hal_rtc_ex.c **** 
1463:Drivers/STM32F0xx_HAL_Driver/Src/stm32f0xx_hal_rtc_ex.c **** /**
1464:Drivers/STM32F0xx_HAL_Driver/Src/stm32f0xx_hal_rtc_ex.c ****   * @brief  Disable the RTC reference clock detection.
1465:Drivers/STM32F0xx_HAL_Driver/Src/stm32f0xx_hal_rtc_ex.c ****   * @param  hrtc RTC handle
1466:Drivers/STM32F0xx_HAL_Driver/Src/stm32f0xx_hal_rtc_ex.c ****   * @retval HAL status
1467:Drivers/STM32F0xx_HAL_Driver/Src/stm32f0xx_hal_rtc_ex.c ****   */
1468:Drivers/STM32F0xx_HAL_Driver/Src/stm32f0xx_hal_rtc_ex.c **** HAL_StatusTypeDef HAL_RTCEx_DeactivateRefClock(RTC_HandleTypeDef* hrtc)
1469:Drivers/STM32F0xx_HAL_Driver/Src/stm32f0xx_hal_rtc_ex.c **** {
 1712              		.loc 1 1469 0
 1713              		.cfi_startproc
 1714              		@ args = 0, pretend = 0, frame = 0
 1715              		@ frame_needed = 0, uses_anonymous_args = 0
 1716              	.LVL141:
 1717 0000 10B5     		push	{r4, lr}
 1718              	.LCFI18:
 1719              		.cfi_def_cfa_offset 8
 1720              		.cfi_offset 4, -8
 1721              		.cfi_offset 14, -4
 1722 0002 0400     		movs	r4, r0
1470:Drivers/STM32F0xx_HAL_Driver/Src/stm32f0xx_hal_rtc_ex.c ****   /* Process Locked */
1471:Drivers/STM32F0xx_HAL_Driver/Src/stm32f0xx_hal_rtc_ex.c ****   __HAL_LOCK(hrtc);
 1723              		.loc 1 1471 0
 1724 0004 037F     		ldrb	r3, [r0, #28]
 1725 0006 012B     		cmp	r3, #1
 1726 0008 01D1     		bne	.L114
 1727 000a 0220     		movs	r0, #2
 1728              	.LVL142:
 1729              	.L111:
1472:Drivers/STM32F0xx_HAL_Driver/Src/stm32f0xx_hal_rtc_ex.c **** 
1473:Drivers/STM32F0xx_HAL_Driver/Src/stm32f0xx_hal_rtc_ex.c ****   hrtc->State = HAL_RTC_STATE_BUSY;
1474:Drivers/STM32F0xx_HAL_Driver/Src/stm32f0xx_hal_rtc_ex.c **** 
ARM GAS  /tmp/cc3tXaRV.s 			page 58


1475:Drivers/STM32F0xx_HAL_Driver/Src/stm32f0xx_hal_rtc_ex.c ****   /* Disable the write protection for RTC registers */
1476:Drivers/STM32F0xx_HAL_Driver/Src/stm32f0xx_hal_rtc_ex.c ****   __HAL_RTC_WRITEPROTECTION_DISABLE(hrtc);
1477:Drivers/STM32F0xx_HAL_Driver/Src/stm32f0xx_hal_rtc_ex.c ****   
1478:Drivers/STM32F0xx_HAL_Driver/Src/stm32f0xx_hal_rtc_ex.c ****   /* Set Initialization mode */
1479:Drivers/STM32F0xx_HAL_Driver/Src/stm32f0xx_hal_rtc_ex.c ****   if(RTC_EnterInitMode(hrtc) != HAL_OK)
1480:Drivers/STM32F0xx_HAL_Driver/Src/stm32f0xx_hal_rtc_ex.c ****   {
1481:Drivers/STM32F0xx_HAL_Driver/Src/stm32f0xx_hal_rtc_ex.c ****     /* Enable the write protection for RTC registers */
1482:Drivers/STM32F0xx_HAL_Driver/Src/stm32f0xx_hal_rtc_ex.c ****     __HAL_RTC_WRITEPROTECTION_ENABLE(hrtc);
1483:Drivers/STM32F0xx_HAL_Driver/Src/stm32f0xx_hal_rtc_ex.c **** 
1484:Drivers/STM32F0xx_HAL_Driver/Src/stm32f0xx_hal_rtc_ex.c ****     /* Set RTC state*/
1485:Drivers/STM32F0xx_HAL_Driver/Src/stm32f0xx_hal_rtc_ex.c ****     hrtc->State = HAL_RTC_STATE_ERROR;
1486:Drivers/STM32F0xx_HAL_Driver/Src/stm32f0xx_hal_rtc_ex.c **** 
1487:Drivers/STM32F0xx_HAL_Driver/Src/stm32f0xx_hal_rtc_ex.c ****     /* Process Unlocked */
1488:Drivers/STM32F0xx_HAL_Driver/Src/stm32f0xx_hal_rtc_ex.c ****     __HAL_UNLOCK(hrtc);
1489:Drivers/STM32F0xx_HAL_Driver/Src/stm32f0xx_hal_rtc_ex.c **** 
1490:Drivers/STM32F0xx_HAL_Driver/Src/stm32f0xx_hal_rtc_ex.c ****     return HAL_ERROR;
1491:Drivers/STM32F0xx_HAL_Driver/Src/stm32f0xx_hal_rtc_ex.c ****   }
1492:Drivers/STM32F0xx_HAL_Driver/Src/stm32f0xx_hal_rtc_ex.c ****   else
1493:Drivers/STM32F0xx_HAL_Driver/Src/stm32f0xx_hal_rtc_ex.c ****   {
1494:Drivers/STM32F0xx_HAL_Driver/Src/stm32f0xx_hal_rtc_ex.c ****     __HAL_RTC_CLOCKREF_DETECTION_DISABLE(hrtc);
1495:Drivers/STM32F0xx_HAL_Driver/Src/stm32f0xx_hal_rtc_ex.c **** 
1496:Drivers/STM32F0xx_HAL_Driver/Src/stm32f0xx_hal_rtc_ex.c ****     /* Exit Initialization mode */
1497:Drivers/STM32F0xx_HAL_Driver/Src/stm32f0xx_hal_rtc_ex.c ****     hrtc->Instance->ISR &= (uint32_t)~RTC_ISR_INIT;
1498:Drivers/STM32F0xx_HAL_Driver/Src/stm32f0xx_hal_rtc_ex.c ****   }
1499:Drivers/STM32F0xx_HAL_Driver/Src/stm32f0xx_hal_rtc_ex.c **** 
1500:Drivers/STM32F0xx_HAL_Driver/Src/stm32f0xx_hal_rtc_ex.c ****   /* Enable the write protection for RTC registers */
1501:Drivers/STM32F0xx_HAL_Driver/Src/stm32f0xx_hal_rtc_ex.c ****   __HAL_RTC_WRITEPROTECTION_ENABLE(hrtc);
1502:Drivers/STM32F0xx_HAL_Driver/Src/stm32f0xx_hal_rtc_ex.c **** 
1503:Drivers/STM32F0xx_HAL_Driver/Src/stm32f0xx_hal_rtc_ex.c ****   /* Change RTC state */
1504:Drivers/STM32F0xx_HAL_Driver/Src/stm32f0xx_hal_rtc_ex.c ****   hrtc->State = HAL_RTC_STATE_READY;
1505:Drivers/STM32F0xx_HAL_Driver/Src/stm32f0xx_hal_rtc_ex.c **** 
1506:Drivers/STM32F0xx_HAL_Driver/Src/stm32f0xx_hal_rtc_ex.c ****   /* Process Unlocked */
1507:Drivers/STM32F0xx_HAL_Driver/Src/stm32f0xx_hal_rtc_ex.c ****   __HAL_UNLOCK(hrtc);
1508:Drivers/STM32F0xx_HAL_Driver/Src/stm32f0xx_hal_rtc_ex.c **** 
1509:Drivers/STM32F0xx_HAL_Driver/Src/stm32f0xx_hal_rtc_ex.c ****   return HAL_OK;
1510:Drivers/STM32F0xx_HAL_Driver/Src/stm32f0xx_hal_rtc_ex.c **** }
 1730              		.loc 1 1510 0
 1731              		@ sp needed
 1732              	.LVL143:
 1733 000c 10BD     		pop	{r4, pc}
 1734              	.LVL144:
 1735              	.L114:
1471:Drivers/STM32F0xx_HAL_Driver/Src/stm32f0xx_hal_rtc_ex.c **** 
 1736              		.loc 1 1471 0 discriminator 2
 1737 000e 0123     		movs	r3, #1
 1738 0010 0377     		strb	r3, [r0, #28]
1473:Drivers/STM32F0xx_HAL_Driver/Src/stm32f0xx_hal_rtc_ex.c **** 
 1739              		.loc 1 1473 0 discriminator 2
 1740 0012 0133     		adds	r3, r3, #1
 1741 0014 4377     		strb	r3, [r0, #29]
1476:Drivers/STM32F0xx_HAL_Driver/Src/stm32f0xx_hal_rtc_ex.c ****   
 1742              		.loc 1 1476 0 discriminator 2
 1743 0016 0368     		ldr	r3, [r0]
 1744 0018 CA22     		movs	r2, #202
 1745 001a 5A62     		str	r2, [r3, #36]
 1746 001c 0368     		ldr	r3, [r0]
 1747 001e 773A     		subs	r2, r2, #119
ARM GAS  /tmp/cc3tXaRV.s 			page 59


 1748 0020 5A62     		str	r2, [r3, #36]
1479:Drivers/STM32F0xx_HAL_Driver/Src/stm32f0xx_hal_rtc_ex.c ****   {
 1749              		.loc 1 1479 0 discriminator 2
 1750 0022 FFF7FEFF 		bl	RTC_EnterInitMode
 1751              	.LVL145:
 1752 0026 0028     		cmp	r0, #0
 1753 0028 11D1     		bne	.L115
1494:Drivers/STM32F0xx_HAL_Driver/Src/stm32f0xx_hal_rtc_ex.c **** 
 1754              		.loc 1 1494 0
 1755 002a 2268     		ldr	r2, [r4]
 1756 002c 9368     		ldr	r3, [r2, #8]
 1757 002e 1021     		movs	r1, #16
 1758 0030 8B43     		bics	r3, r1
 1759 0032 9360     		str	r3, [r2, #8]
1497:Drivers/STM32F0xx_HAL_Driver/Src/stm32f0xx_hal_rtc_ex.c ****   }
 1760              		.loc 1 1497 0
 1761 0034 2268     		ldr	r2, [r4]
 1762 0036 D368     		ldr	r3, [r2, #12]
 1763 0038 7031     		adds	r1, r1, #112
 1764 003a 8B43     		bics	r3, r1
 1765 003c D360     		str	r3, [r2, #12]
1501:Drivers/STM32F0xx_HAL_Driver/Src/stm32f0xx_hal_rtc_ex.c **** 
 1766              		.loc 1 1501 0
 1767 003e 2368     		ldr	r3, [r4]
 1768 0040 FF22     		movs	r2, #255
 1769 0042 5A62     		str	r2, [r3, #36]
1504:Drivers/STM32F0xx_HAL_Driver/Src/stm32f0xx_hal_rtc_ex.c **** 
 1770              		.loc 1 1504 0
 1771 0044 0123     		movs	r3, #1
 1772 0046 6377     		strb	r3, [r4, #29]
1507:Drivers/STM32F0xx_HAL_Driver/Src/stm32f0xx_hal_rtc_ex.c **** 
 1773              		.loc 1 1507 0
 1774 0048 0023     		movs	r3, #0
 1775 004a 2377     		strb	r3, [r4, #28]
1509:Drivers/STM32F0xx_HAL_Driver/Src/stm32f0xx_hal_rtc_ex.c **** }
 1776              		.loc 1 1509 0
 1777 004c DEE7     		b	.L111
 1778              	.L115:
1482:Drivers/STM32F0xx_HAL_Driver/Src/stm32f0xx_hal_rtc_ex.c **** 
 1779              		.loc 1 1482 0
 1780 004e 2368     		ldr	r3, [r4]
 1781 0050 FF22     		movs	r2, #255
 1782 0052 5A62     		str	r2, [r3, #36]
1485:Drivers/STM32F0xx_HAL_Driver/Src/stm32f0xx_hal_rtc_ex.c **** 
 1783              		.loc 1 1485 0
 1784 0054 0423     		movs	r3, #4
 1785 0056 6377     		strb	r3, [r4, #29]
1488:Drivers/STM32F0xx_HAL_Driver/Src/stm32f0xx_hal_rtc_ex.c **** 
 1786              		.loc 1 1488 0
 1787 0058 0023     		movs	r3, #0
 1788 005a 2377     		strb	r3, [r4, #28]
1490:Drivers/STM32F0xx_HAL_Driver/Src/stm32f0xx_hal_rtc_ex.c ****   }
 1789              		.loc 1 1490 0
 1790 005c 0120     		movs	r0, #1
 1791 005e D5E7     		b	.L111
 1792              		.cfi_endproc
 1793              	.LFE54:
ARM GAS  /tmp/cc3tXaRV.s 			page 60


 1795              		.section	.text.HAL_RTCEx_EnableBypassShadow,"ax",%progbits
 1796              		.align	1
 1797              		.global	HAL_RTCEx_EnableBypassShadow
 1798              		.syntax unified
 1799              		.code	16
 1800              		.thumb_func
 1801              		.fpu softvfp
 1803              	HAL_RTCEx_EnableBypassShadow:
 1804              	.LFB55:
1511:Drivers/STM32F0xx_HAL_Driver/Src/stm32f0xx_hal_rtc_ex.c **** 
1512:Drivers/STM32F0xx_HAL_Driver/Src/stm32f0xx_hal_rtc_ex.c **** /**
1513:Drivers/STM32F0xx_HAL_Driver/Src/stm32f0xx_hal_rtc_ex.c ****   * @brief  Enable the Bypass Shadow feature.
1514:Drivers/STM32F0xx_HAL_Driver/Src/stm32f0xx_hal_rtc_ex.c ****   * @param  hrtc RTC handle
1515:Drivers/STM32F0xx_HAL_Driver/Src/stm32f0xx_hal_rtc_ex.c ****   * @note   When the Bypass Shadow is enabled the calendar value are taken
1516:Drivers/STM32F0xx_HAL_Driver/Src/stm32f0xx_hal_rtc_ex.c ****   *         directly from the Calendar counter.
1517:Drivers/STM32F0xx_HAL_Driver/Src/stm32f0xx_hal_rtc_ex.c ****   * @retval HAL status
1518:Drivers/STM32F0xx_HAL_Driver/Src/stm32f0xx_hal_rtc_ex.c ****   */
1519:Drivers/STM32F0xx_HAL_Driver/Src/stm32f0xx_hal_rtc_ex.c **** HAL_StatusTypeDef HAL_RTCEx_EnableBypassShadow(RTC_HandleTypeDef* hrtc)
1520:Drivers/STM32F0xx_HAL_Driver/Src/stm32f0xx_hal_rtc_ex.c **** {
 1805              		.loc 1 1520 0
 1806              		.cfi_startproc
 1807              		@ args = 0, pretend = 0, frame = 0
 1808              		@ frame_needed = 0, uses_anonymous_args = 0
 1809              	.LVL146:
 1810 0000 10B5     		push	{r4, lr}
 1811              	.LCFI19:
 1812              		.cfi_def_cfa_offset 8
 1813              		.cfi_offset 4, -8
 1814              		.cfi_offset 14, -4
1521:Drivers/STM32F0xx_HAL_Driver/Src/stm32f0xx_hal_rtc_ex.c ****   /* Process Locked */
1522:Drivers/STM32F0xx_HAL_Driver/Src/stm32f0xx_hal_rtc_ex.c ****   __HAL_LOCK(hrtc);
 1815              		.loc 1 1522 0
 1816 0002 037F     		ldrb	r3, [r0, #28]
 1817 0004 012B     		cmp	r3, #1
 1818 0006 16D0     		beq	.L118
 1819              		.loc 1 1522 0 is_stmt 0 discriminator 2
 1820 0008 0122     		movs	r2, #1
 1821 000a 0277     		strb	r2, [r0, #28]
1523:Drivers/STM32F0xx_HAL_Driver/Src/stm32f0xx_hal_rtc_ex.c **** 
1524:Drivers/STM32F0xx_HAL_Driver/Src/stm32f0xx_hal_rtc_ex.c ****   hrtc->State = HAL_RTC_STATE_BUSY;
 1822              		.loc 1 1524 0 is_stmt 1 discriminator 2
 1823 000c 0223     		movs	r3, #2
 1824 000e 4377     		strb	r3, [r0, #29]
1525:Drivers/STM32F0xx_HAL_Driver/Src/stm32f0xx_hal_rtc_ex.c **** 
1526:Drivers/STM32F0xx_HAL_Driver/Src/stm32f0xx_hal_rtc_ex.c ****   /* Disable the write protection for RTC registers */
1527:Drivers/STM32F0xx_HAL_Driver/Src/stm32f0xx_hal_rtc_ex.c ****   __HAL_RTC_WRITEPROTECTION_DISABLE(hrtc);
 1825              		.loc 1 1527 0 discriminator 2
 1826 0010 0368     		ldr	r3, [r0]
 1827 0012 CA21     		movs	r1, #202
 1828 0014 5962     		str	r1, [r3, #36]
 1829 0016 0368     		ldr	r3, [r0]
 1830 0018 7739     		subs	r1, r1, #119
 1831 001a 5962     		str	r1, [r3, #36]
1528:Drivers/STM32F0xx_HAL_Driver/Src/stm32f0xx_hal_rtc_ex.c **** 
1529:Drivers/STM32F0xx_HAL_Driver/Src/stm32f0xx_hal_rtc_ex.c ****   /* Set the BYPSHAD bit */
1530:Drivers/STM32F0xx_HAL_Driver/Src/stm32f0xx_hal_rtc_ex.c ****   hrtc->Instance->CR |= (uint8_t)RTC_CR_BYPSHAD;
 1832              		.loc 1 1530 0 discriminator 2
ARM GAS  /tmp/cc3tXaRV.s 			page 61


 1833 001c 0168     		ldr	r1, [r0]
 1834 001e 8B68     		ldr	r3, [r1, #8]
 1835 0020 2024     		movs	r4, #32
 1836 0022 2343     		orrs	r3, r4
 1837 0024 8B60     		str	r3, [r1, #8]
1531:Drivers/STM32F0xx_HAL_Driver/Src/stm32f0xx_hal_rtc_ex.c **** 
1532:Drivers/STM32F0xx_HAL_Driver/Src/stm32f0xx_hal_rtc_ex.c ****   /* Enable the write protection for RTC registers */
1533:Drivers/STM32F0xx_HAL_Driver/Src/stm32f0xx_hal_rtc_ex.c ****   __HAL_RTC_WRITEPROTECTION_ENABLE(hrtc);
 1838              		.loc 1 1533 0 discriminator 2
 1839 0026 0368     		ldr	r3, [r0]
 1840 0028 FF21     		movs	r1, #255
 1841 002a 5962     		str	r1, [r3, #36]
1534:Drivers/STM32F0xx_HAL_Driver/Src/stm32f0xx_hal_rtc_ex.c **** 
1535:Drivers/STM32F0xx_HAL_Driver/Src/stm32f0xx_hal_rtc_ex.c ****   /* Change RTC state */
1536:Drivers/STM32F0xx_HAL_Driver/Src/stm32f0xx_hal_rtc_ex.c ****   hrtc->State = HAL_RTC_STATE_READY;
 1842              		.loc 1 1536 0 discriminator 2
 1843 002c 4277     		strb	r2, [r0, #29]
1537:Drivers/STM32F0xx_HAL_Driver/Src/stm32f0xx_hal_rtc_ex.c **** 
1538:Drivers/STM32F0xx_HAL_Driver/Src/stm32f0xx_hal_rtc_ex.c ****   /* Process Unlocked */
1539:Drivers/STM32F0xx_HAL_Driver/Src/stm32f0xx_hal_rtc_ex.c ****   __HAL_UNLOCK(hrtc);
 1844              		.loc 1 1539 0 discriminator 2
 1845 002e 0023     		movs	r3, #0
 1846 0030 0377     		strb	r3, [r0, #28]
1540:Drivers/STM32F0xx_HAL_Driver/Src/stm32f0xx_hal_rtc_ex.c **** 
1541:Drivers/STM32F0xx_HAL_Driver/Src/stm32f0xx_hal_rtc_ex.c ****   return HAL_OK;
 1847              		.loc 1 1541 0 discriminator 2
 1848 0032 0020     		movs	r0, #0
 1849              	.LVL147:
 1850              	.L117:
1542:Drivers/STM32F0xx_HAL_Driver/Src/stm32f0xx_hal_rtc_ex.c **** }
 1851              		.loc 1 1542 0
 1852              		@ sp needed
 1853 0034 10BD     		pop	{r4, pc}
 1854              	.LVL148:
 1855              	.L118:
1522:Drivers/STM32F0xx_HAL_Driver/Src/stm32f0xx_hal_rtc_ex.c **** 
 1856              		.loc 1 1522 0
 1857 0036 0220     		movs	r0, #2
 1858              	.LVL149:
 1859 0038 FCE7     		b	.L117
 1860              		.cfi_endproc
 1861              	.LFE55:
 1863              		.section	.text.HAL_RTCEx_DisableBypassShadow,"ax",%progbits
 1864              		.align	1
 1865              		.global	HAL_RTCEx_DisableBypassShadow
 1866              		.syntax unified
 1867              		.code	16
 1868              		.thumb_func
 1869              		.fpu softvfp
 1871              	HAL_RTCEx_DisableBypassShadow:
 1872              	.LFB56:
1543:Drivers/STM32F0xx_HAL_Driver/Src/stm32f0xx_hal_rtc_ex.c **** 
1544:Drivers/STM32F0xx_HAL_Driver/Src/stm32f0xx_hal_rtc_ex.c **** /**
1545:Drivers/STM32F0xx_HAL_Driver/Src/stm32f0xx_hal_rtc_ex.c ****   * @brief  Disable the Bypass Shadow feature.
1546:Drivers/STM32F0xx_HAL_Driver/Src/stm32f0xx_hal_rtc_ex.c ****   * @param  hrtc RTC handle
1547:Drivers/STM32F0xx_HAL_Driver/Src/stm32f0xx_hal_rtc_ex.c ****   * @note   When the Bypass Shadow is enabled the calendar value are taken
1548:Drivers/STM32F0xx_HAL_Driver/Src/stm32f0xx_hal_rtc_ex.c ****   *         directly from the Calendar counter.
ARM GAS  /tmp/cc3tXaRV.s 			page 62


1549:Drivers/STM32F0xx_HAL_Driver/Src/stm32f0xx_hal_rtc_ex.c ****   * @retval HAL status
1550:Drivers/STM32F0xx_HAL_Driver/Src/stm32f0xx_hal_rtc_ex.c ****   */
1551:Drivers/STM32F0xx_HAL_Driver/Src/stm32f0xx_hal_rtc_ex.c **** HAL_StatusTypeDef HAL_RTCEx_DisableBypassShadow(RTC_HandleTypeDef* hrtc)
1552:Drivers/STM32F0xx_HAL_Driver/Src/stm32f0xx_hal_rtc_ex.c **** {
 1873              		.loc 1 1552 0
 1874              		.cfi_startproc
 1875              		@ args = 0, pretend = 0, frame = 0
 1876              		@ frame_needed = 0, uses_anonymous_args = 0
 1877              	.LVL150:
 1878 0000 10B5     		push	{r4, lr}
 1879              	.LCFI20:
 1880              		.cfi_def_cfa_offset 8
 1881              		.cfi_offset 4, -8
 1882              		.cfi_offset 14, -4
1553:Drivers/STM32F0xx_HAL_Driver/Src/stm32f0xx_hal_rtc_ex.c ****   /* Process Locked */
1554:Drivers/STM32F0xx_HAL_Driver/Src/stm32f0xx_hal_rtc_ex.c ****   __HAL_LOCK(hrtc);
 1883              		.loc 1 1554 0
 1884 0002 037F     		ldrb	r3, [r0, #28]
 1885 0004 012B     		cmp	r3, #1
 1886 0006 16D0     		beq	.L121
 1887              		.loc 1 1554 0 is_stmt 0 discriminator 2
 1888 0008 0122     		movs	r2, #1
 1889 000a 0277     		strb	r2, [r0, #28]
1555:Drivers/STM32F0xx_HAL_Driver/Src/stm32f0xx_hal_rtc_ex.c **** 
1556:Drivers/STM32F0xx_HAL_Driver/Src/stm32f0xx_hal_rtc_ex.c ****   hrtc->State = HAL_RTC_STATE_BUSY;
 1890              		.loc 1 1556 0 is_stmt 1 discriminator 2
 1891 000c 0223     		movs	r3, #2
 1892 000e 4377     		strb	r3, [r0, #29]
1557:Drivers/STM32F0xx_HAL_Driver/Src/stm32f0xx_hal_rtc_ex.c **** 
1558:Drivers/STM32F0xx_HAL_Driver/Src/stm32f0xx_hal_rtc_ex.c ****   /* Disable the write protection for RTC registers */
1559:Drivers/STM32F0xx_HAL_Driver/Src/stm32f0xx_hal_rtc_ex.c ****   __HAL_RTC_WRITEPROTECTION_DISABLE(hrtc);
 1893              		.loc 1 1559 0 discriminator 2
 1894 0010 0368     		ldr	r3, [r0]
 1895 0012 CA21     		movs	r1, #202
 1896 0014 5962     		str	r1, [r3, #36]
 1897 0016 0368     		ldr	r3, [r0]
 1898 0018 7739     		subs	r1, r1, #119
 1899 001a 5962     		str	r1, [r3, #36]
1560:Drivers/STM32F0xx_HAL_Driver/Src/stm32f0xx_hal_rtc_ex.c **** 
1561:Drivers/STM32F0xx_HAL_Driver/Src/stm32f0xx_hal_rtc_ex.c ****   /* Reset the BYPSHAD bit */
1562:Drivers/STM32F0xx_HAL_Driver/Src/stm32f0xx_hal_rtc_ex.c ****   hrtc->Instance->CR &= ((uint8_t)~RTC_CR_BYPSHAD);
 1900              		.loc 1 1562 0 discriminator 2
 1901 001c 0168     		ldr	r1, [r0]
 1902 001e 8C68     		ldr	r4, [r1, #8]
 1903 0020 DF23     		movs	r3, #223
 1904 0022 2340     		ands	r3, r4
 1905 0024 8B60     		str	r3, [r1, #8]
1563:Drivers/STM32F0xx_HAL_Driver/Src/stm32f0xx_hal_rtc_ex.c **** 
1564:Drivers/STM32F0xx_HAL_Driver/Src/stm32f0xx_hal_rtc_ex.c ****   /* Enable the write protection for RTC registers */
1565:Drivers/STM32F0xx_HAL_Driver/Src/stm32f0xx_hal_rtc_ex.c ****   __HAL_RTC_WRITEPROTECTION_ENABLE(hrtc);
 1906              		.loc 1 1565 0 discriminator 2
 1907 0026 0368     		ldr	r3, [r0]
 1908 0028 FF21     		movs	r1, #255
 1909 002a 5962     		str	r1, [r3, #36]
1566:Drivers/STM32F0xx_HAL_Driver/Src/stm32f0xx_hal_rtc_ex.c **** 
1567:Drivers/STM32F0xx_HAL_Driver/Src/stm32f0xx_hal_rtc_ex.c ****   /* Change RTC state */
1568:Drivers/STM32F0xx_HAL_Driver/Src/stm32f0xx_hal_rtc_ex.c ****   hrtc->State = HAL_RTC_STATE_READY;
ARM GAS  /tmp/cc3tXaRV.s 			page 63


 1910              		.loc 1 1568 0 discriminator 2
 1911 002c 4277     		strb	r2, [r0, #29]
1569:Drivers/STM32F0xx_HAL_Driver/Src/stm32f0xx_hal_rtc_ex.c **** 
1570:Drivers/STM32F0xx_HAL_Driver/Src/stm32f0xx_hal_rtc_ex.c ****   /* Process Unlocked */
1571:Drivers/STM32F0xx_HAL_Driver/Src/stm32f0xx_hal_rtc_ex.c ****   __HAL_UNLOCK(hrtc);
 1912              		.loc 1 1571 0 discriminator 2
 1913 002e 0023     		movs	r3, #0
 1914 0030 0377     		strb	r3, [r0, #28]
1572:Drivers/STM32F0xx_HAL_Driver/Src/stm32f0xx_hal_rtc_ex.c **** 
1573:Drivers/STM32F0xx_HAL_Driver/Src/stm32f0xx_hal_rtc_ex.c ****   return HAL_OK;
 1915              		.loc 1 1573 0 discriminator 2
 1916 0032 0020     		movs	r0, #0
 1917              	.LVL151:
 1918              	.L120:
1574:Drivers/STM32F0xx_HAL_Driver/Src/stm32f0xx_hal_rtc_ex.c **** }
 1919              		.loc 1 1574 0
 1920              		@ sp needed
 1921 0034 10BD     		pop	{r4, pc}
 1922              	.LVL152:
 1923              	.L121:
1554:Drivers/STM32F0xx_HAL_Driver/Src/stm32f0xx_hal_rtc_ex.c **** 
 1924              		.loc 1 1554 0
 1925 0036 0220     		movs	r0, #2
 1926              	.LVL153:
 1927 0038 FCE7     		b	.L120
 1928              		.cfi_endproc
 1929              	.LFE56:
 1931              		.text
 1932              	.Letext0:
 1933              		.file 2 "/home/arthurdent/Programs/gcc-arm-none-eabi-6-2017-q1-update/arm-none-eabi/include/machin
 1934              		.file 3 "/home/arthurdent/Programs/gcc-arm-none-eabi-6-2017-q1-update/arm-none-eabi/include/sys/_s
 1935              		.file 4 "Drivers/CMSIS/Device/ST/STM32F0xx/Include/system_stm32f0xx.h"
 1936              		.file 5 "Drivers/CMSIS/Device/ST/STM32F0xx/Include/stm32f030x6.h"
 1937              		.file 6 "/home/arthurdent/Programs/gcc-arm-none-eabi-6-2017-q1-update/arm-none-eabi/include/sys/lo
 1938              		.file 7 "/home/arthurdent/Programs/gcc-arm-none-eabi-6-2017-q1-update/arm-none-eabi/include/sys/_t
 1939              		.file 8 "/home/arthurdent/Programs/gcc-arm-none-eabi-6-2017-q1-update/lib/gcc/arm-none-eabi/6.3.1/
 1940              		.file 9 "/home/arthurdent/Programs/gcc-arm-none-eabi-6-2017-q1-update/arm-none-eabi/include/sys/re
 1941              		.file 10 "Drivers/CMSIS/Device/ST/STM32F0xx/Include/stm32f0xx.h"
 1942              		.file 11 "Drivers/STM32F0xx_HAL_Driver/Inc/stm32f0xx_hal_def.h"
 1943              		.file 12 "Drivers/STM32F0xx_HAL_Driver/Inc/stm32f0xx_hal_rtc.h"
 1944              		.file 13 "Drivers/STM32F0xx_HAL_Driver/Inc/stm32f0xx_hal_rtc_ex.h"
 1945              		.file 14 "Drivers/STM32F0xx_HAL_Driver/Inc/stm32f0xx_hal.h"
ARM GAS  /tmp/cc3tXaRV.s 			page 64

